
Drivers.axf:     file format elf32-littlearm


Disassembly of section .isr_vector:

08000000 <g_pfnVectors>:
 8000000:	20002800 	andcs	r2, r0, r0, lsl #16
 8000004:	0800028d 	stmdaeq	r0, {r0, r2, r3, r7, r9}
 8000008:	080002dd 	stmdaeq	r0, {r0, r2, r3, r4, r6, r7, r9}
 800000c:	080002dd 	stmdaeq	r0, {r0, r2, r3, r4, r6, r7, r9}
 8000010:	080002dd 	stmdaeq	r0, {r0, r2, r3, r4, r6, r7, r9}
 8000014:	080002dd 	stmdaeq	r0, {r0, r2, r3, r4, r6, r7, r9}
 8000018:	080002dd 	stmdaeq	r0, {r0, r2, r3, r4, r6, r7, r9}
	...
 800002c:	080002dd 	stmdaeq	r0, {r0, r2, r3, r4, r6, r7, r9}
 8000030:	080002dd 	stmdaeq	r0, {r0, r2, r3, r4, r6, r7, r9}
 8000034:	00000000 	andeq	r0, r0, r0
 8000038:	080002dd 	stmdaeq	r0, {r0, r2, r3, r4, r6, r7, r9}
 800003c:	080002dd 	stmdaeq	r0, {r0, r2, r3, r4, r6, r7, r9}
 8000040:	080002dd 	stmdaeq	r0, {r0, r2, r3, r4, r6, r7, r9}
 8000044:	080002dd 	stmdaeq	r0, {r0, r2, r3, r4, r6, r7, r9}
 8000048:	080002dd 	stmdaeq	r0, {r0, r2, r3, r4, r6, r7, r9}
 800004c:	080002dd 	stmdaeq	r0, {r0, r2, r3, r4, r6, r7, r9}
 8000050:	080002dd 	stmdaeq	r0, {r0, r2, r3, r4, r6, r7, r9}
 8000054:	080002dd 	stmdaeq	r0, {r0, r2, r3, r4, r6, r7, r9}
 8000058:	08000671 	stmdaeq	r0, {r0, r4, r5, r6, r9, sl}
 800005c:	0800068d 	stmdaeq	r0, {r0, r2, r3, r7, r9, sl}
 8000060:	080006a9 	stmdaeq	r0, {r0, r3, r5, r7, r9, sl}
 8000064:	080006c5 	stmdaeq	r0, {r0, r2, r6, r7, r9, sl}
 8000068:	080006e1 	stmdaeq	r0, {r0, r5, r6, r7, r9, sl}
 800006c:	080002dd 	stmdaeq	r0, {r0, r2, r3, r4, r6, r7, r9}
 8000070:	080002dd 	stmdaeq	r0, {r0, r2, r3, r4, r6, r7, r9}
 8000074:	080002dd 	stmdaeq	r0, {r0, r2, r3, r4, r6, r7, r9}
 8000078:	080002dd 	stmdaeq	r0, {r0, r2, r3, r4, r6, r7, r9}
 800007c:	080002dd 	stmdaeq	r0, {r0, r2, r3, r4, r6, r7, r9}
 8000080:	080002dd 	stmdaeq	r0, {r0, r2, r3, r4, r6, r7, r9}
 8000084:	080002dd 	stmdaeq	r0, {r0, r2, r3, r4, r6, r7, r9}
 8000088:	080002dd 	stmdaeq	r0, {r0, r2, r3, r4, r6, r7, r9}
 800008c:	080002dd 	stmdaeq	r0, {r0, r2, r3, r4, r6, r7, r9}
 8000090:	080002dd 	stmdaeq	r0, {r0, r2, r3, r4, r6, r7, r9}
 8000094:	080002dd 	stmdaeq	r0, {r0, r2, r3, r4, r6, r7, r9}
 8000098:	080002dd 	stmdaeq	r0, {r0, r2, r3, r4, r6, r7, r9}
 800009c:	080006fd 	stmdaeq	r0, {r0, r2, r3, r4, r5, r6, r7, r9, sl}
 80000a0:	080002dd 	stmdaeq	r0, {r0, r2, r3, r4, r6, r7, r9}
 80000a4:	080002dd 	stmdaeq	r0, {r0, r2, r3, r4, r6, r7, r9}
 80000a8:	080002dd 	stmdaeq	r0, {r0, r2, r3, r4, r6, r7, r9}
 80000ac:	080002dd 	stmdaeq	r0, {r0, r2, r3, r4, r6, r7, r9}
 80000b0:	080002dd 	stmdaeq	r0, {r0, r2, r3, r4, r6, r7, r9}
 80000b4:	080002dd 	stmdaeq	r0, {r0, r2, r3, r4, r6, r7, r9}
 80000b8:	080002dd 	stmdaeq	r0, {r0, r2, r3, r4, r6, r7, r9}
 80000bc:	080002dd 	stmdaeq	r0, {r0, r2, r3, r4, r6, r7, r9}
 80000c0:	080002dd 	stmdaeq	r0, {r0, r2, r3, r4, r6, r7, r9}
 80000c4:	080002dd 	stmdaeq	r0, {r0, r2, r3, r4, r6, r7, r9}
 80000c8:	080002dd 	stmdaeq	r0, {r0, r2, r3, r4, r6, r7, r9}
 80000cc:	08000a31 	stmdaeq	r0, {r0, r4, r5, r9, fp}
 80000d0:	08000a45 	stmdaeq	r0, {r0, r2, r6, r9, fp}
 80000d4:	08000a6d 	stmdaeq	r0, {r0, r2, r3, r5, r6, r9, fp}
 80000d8:	08000a81 	stmdaeq	r0, {r0, r7, r9, fp}
 80000dc:	08000a95 	stmdaeq	r0, {r0, r2, r4, r7, r9, fp}
 80000e0:	08000789 	stmdaeq	r0, {r0, r3, r7, r8, r9, sl}
 80000e4:	080002dd 	stmdaeq	r0, {r0, r2, r3, r4, r6, r7, r9}
 80000e8:	00000000 	andeq	r0, r0, r0
 80000ec:	080002dd 	stmdaeq	r0, {r0, r2, r3, r4, r6, r7, r9}
 80000f0:	080002dd 	stmdaeq	r0, {r0, r2, r3, r4, r6, r7, r9}
 80000f4:	080002dd 	stmdaeq	r0, {r0, r2, r3, r4, r6, r7, r9}
 80000f8:	080002dd 	stmdaeq	r0, {r0, r2, r3, r4, r6, r7, r9}
 80000fc:	080002dd 	stmdaeq	r0, {r0, r2, r3, r4, r6, r7, r9}
 8000100:	080002dd 	stmdaeq	r0, {r0, r2, r3, r4, r6, r7, r9}
 8000104:	080002dd 	stmdaeq	r0, {r0, r2, r3, r4, r6, r7, r9}
 8000108:	080002dd 	stmdaeq	r0, {r0, r2, r3, r4, r6, r7, r9}
 800010c:	08000a59 	stmdaeq	r0, {r0, r3, r4, r6, r9, fp}
 8000110:	080002dd 	stmdaeq	r0, {r0, r2, r3, r4, r6, r7, r9}
 8000114:	080002dd 	stmdaeq	r0, {r0, r2, r3, r4, r6, r7, r9}
 8000118:	080002dd 	stmdaeq	r0, {r0, r2, r3, r4, r6, r7, r9}
 800011c:	080002dd 	stmdaeq	r0, {r0, r2, r3, r4, r6, r7, r9}
 8000120:	080002dd 	stmdaeq	r0, {r0, r2, r3, r4, r6, r7, r9}
 8000124:	080002dd 	stmdaeq	r0, {r0, r2, r3, r4, r6, r7, r9}
 8000128:	080002dd 	stmdaeq	r0, {r0, r2, r3, r4, r6, r7, r9}
 800012c:	080002dd 	stmdaeq	r0, {r0, r2, r3, r4, r6, r7, r9}

Disassembly of section .text:

08000130 <__do_global_dtors_aux>:
 8000130:	b510      	push	{r4, lr}
 8000132:	4c05      	ldr	r4, [pc, #20]	; (8000148 <__do_global_dtors_aux+0x18>)
 8000134:	7823      	ldrb	r3, [r4, #0]
 8000136:	b933      	cbnz	r3, 8000146 <__do_global_dtors_aux+0x16>
 8000138:	4b04      	ldr	r3, [pc, #16]	; (800014c <__do_global_dtors_aux+0x1c>)
 800013a:	b113      	cbz	r3, 8000142 <__do_global_dtors_aux+0x12>
 800013c:	4804      	ldr	r0, [pc, #16]	; (8000150 <__do_global_dtors_aux+0x20>)
 800013e:	f3af 8000 	nop.w
 8000142:	2301      	movs	r3, #1
 8000144:	7023      	strb	r3, [r4, #0]
 8000146:	bd10      	pop	{r4, pc}
 8000148:	20000000 	andcs	r0, r0, r0
 800014c:	00000000 	andeq	r0, r0, r0
 8000150:	08000af0 	stmdaeq	r0, {r4, r5, r6, r7, r9, fp}

08000154 <frame_dummy>:
 8000154:	b508      	push	{r3, lr}
 8000156:	4b03      	ldr	r3, [pc, #12]	; (8000164 <frame_dummy+0x10>)
 8000158:	b11b      	cbz	r3, 8000162 <frame_dummy+0xe>
 800015a:	4903      	ldr	r1, [pc, #12]	; (8000168 <frame_dummy+0x14>)
 800015c:	4803      	ldr	r0, [pc, #12]	; (800016c <frame_dummy+0x18>)
 800015e:	f3af 8000 	nop.w
 8000162:	bd08      	pop	{r3, pc}
 8000164:	00000000 	andeq	r0, r0, r0
 8000168:	20000004 	andcs	r0, r0, r4
 800016c:	08000af0 	stmdaeq	r0, {r4, r5, r6, r7, r9, fp}

08000170 <Clock_Init>:
 8000170:	b480      	push	{r7}
 8000172:	af00      	add	r7, sp, #0
 8000174:	4b0a      	ldr	r3, [pc, #40]	; (80001a0 <Clock_Init+0x30>)
 8000176:	699b      	ldr	r3, [r3, #24]
 8000178:	4a09      	ldr	r2, [pc, #36]	; (80001a0 <Clock_Init+0x30>)
 800017a:	f043 0301 	orr.w	r3, r3, #1
 800017e:	6193      	str	r3, [r2, #24]
 8000180:	4b07      	ldr	r3, [pc, #28]	; (80001a0 <Clock_Init+0x30>)
 8000182:	699b      	ldr	r3, [r3, #24]
 8000184:	4a06      	ldr	r2, [pc, #24]	; (80001a0 <Clock_Init+0x30>)
 8000186:	f043 0304 	orr.w	r3, r3, #4
 800018a:	6193      	str	r3, [r2, #24]
 800018c:	4b04      	ldr	r3, [pc, #16]	; (80001a0 <Clock_Init+0x30>)
 800018e:	699b      	ldr	r3, [r3, #24]
 8000190:	4a03      	ldr	r2, [pc, #12]	; (80001a0 <Clock_Init+0x30>)
 8000192:	f043 0308 	orr.w	r3, r3, #8
 8000196:	6193      	str	r3, [r2, #24]
 8000198:	bf00      	nop
 800019a:	46bd      	mov	sp, r7
 800019c:	bc80      	pop	{r7}
 800019e:	4770      	bx	lr
 80001a0:	40021000 	andmi	r1, r2, r0

080001a4 <GPIO_Init>:
 80001a4:	b580      	push	{r7, lr}
 80001a6:	b082      	sub	sp, #8
 80001a8:	af00      	add	r7, sp, #0
 80001aa:	2302      	movs	r3, #2
 80001ac:	80bb      	strh	r3, [r7, #4]
 80001ae:	2301      	movs	r3, #1
 80001b0:	71bb      	strb	r3, [r7, #6]
 80001b2:	1d3b      	adds	r3, r7, #4
 80001b4:	4619      	mov	r1, r3
 80001b6:	4814      	ldr	r0, [pc, #80]	; (8000208 <GPIO_Init+0x64>)
 80001b8:	f000 fbaa 	bl	8000910 <GPIOx_init>
 80001bc:	f44f 5300 	mov.w	r3, #8192	; 0x2000
 80001c0:	80bb      	strh	r3, [r7, #4]
 80001c2:	2301      	movs	r3, #1
 80001c4:	71bb      	strb	r3, [r7, #6]
 80001c6:	1d3b      	adds	r3, r7, #4
 80001c8:	4619      	mov	r1, r3
 80001ca:	480f      	ldr	r0, [pc, #60]	; (8000208 <GPIO_Init+0x64>)
 80001cc:	f000 fba0 	bl	8000910 <GPIOx_init>
 80001d0:	2302      	movs	r3, #2
 80001d2:	80bb      	strh	r3, [r7, #4]
 80001d4:	2304      	movs	r3, #4
 80001d6:	71bb      	strb	r3, [r7, #6]
 80001d8:	2301      	movs	r3, #1
 80001da:	71fb      	strb	r3, [r7, #7]
 80001dc:	1d3b      	adds	r3, r7, #4
 80001de:	4619      	mov	r1, r3
 80001e0:	480a      	ldr	r0, [pc, #40]	; (800020c <GPIO_Init+0x68>)
 80001e2:	f000 fb95 	bl	8000910 <GPIOx_init>
 80001e6:	f44f 5300 	mov.w	r3, #8192	; 0x2000
 80001ea:	80bb      	strh	r3, [r7, #4]
 80001ec:	2304      	movs	r3, #4
 80001ee:	71bb      	strb	r3, [r7, #6]
 80001f0:	2301      	movs	r3, #1
 80001f2:	71fb      	strb	r3, [r7, #7]
 80001f4:	1d3b      	adds	r3, r7, #4
 80001f6:	4619      	mov	r1, r3
 80001f8:	4804      	ldr	r0, [pc, #16]	; (800020c <GPIO_Init+0x68>)
 80001fa:	f000 fb89 	bl	8000910 <GPIOx_init>
 80001fe:	bf00      	nop
 8000200:	3708      	adds	r7, #8
 8000202:	46bd      	mov	sp, r7
 8000204:	bd80      	pop	{r7, pc}
 8000206:	bf00      	nop
 8000208:	40010800 	andmi	r0, r1, r0, lsl #16
 800020c:	40010c00 	andmi	r0, r1, r0, lsl #24

08000210 <INT_ACTION>:
 8000210:	b580      	push	{r7, lr}
 8000212:	af00      	add	r7, sp, #0
 8000214:	f44f 5100 	mov.w	r1, #8192	; 0x2000
 8000218:	4802      	ldr	r0, [pc, #8]	; (8000224 <INT_ACTION+0x14>)
 800021a:	f000 fbf7 	bl	8000a0c <GPIOx_TOGGELE_PIN>
 800021e:	bf00      	nop
 8000220:	bd80      	pop	{r7, pc}
 8000222:	bf00      	nop
 8000224:	40010c00 	andmi	r0, r1, r0, lsl #24

08000228 <main>:
 8000228:	b580      	push	{r7, lr}
 800022a:	b082      	sub	sp, #8
 800022c:	af00      	add	r7, sp, #0
 800022e:	f7ff ff9f 	bl	8000170 <Clock_Init>
 8000232:	f7ff ffb7 	bl	80001a4 <GPIO_Init>
 8000236:	bf00      	nop
 8000238:	bf00      	nop
 800023a:	bf00      	nop
 800023c:	2305      	movs	r3, #5
 800023e:	71bb      	strb	r3, [r7, #6]
 8000240:	2304      	movs	r3, #4
 8000242:	717b      	strb	r3, [r7, #5]
 8000244:	f04f 03ff 	mov.w	r3, #255	; 0xff
 8000248:	71fb      	strb	r3, [r7, #7]
 800024a:	79fb      	ldrb	r3, [r7, #7]
 800024c:	b2db      	uxtb	r3, r3
 800024e:	4618      	mov	r0, r3
 8000250:	79bb      	ldrb	r3, [r7, #6]
 8000252:	b2db      	uxtb	r3, r3
 8000254:	797a      	ldrb	r2, [r7, #5]
 8000256:	b2d2      	uxtb	r2, r2
 8000258:	4413      	add	r3, r2
 800025a:	713b      	strb	r3, [r7, #4]
 800025c:	4b08      	ldr	r3, [pc, #32]	; (8000280 <main+0x58>)
 800025e:	4a09      	ldr	r2, [pc, #36]	; (8000284 <main+0x5c>)
 8000260:	ca07      	ldmia	r2, {r0, r1, r2}
 8000262:	e883 0007 	stmia.w	r3, {r0, r1, r2}
 8000266:	4b06      	ldr	r3, [pc, #24]	; (8000280 <main+0x58>)
 8000268:	2200      	movs	r2, #0
 800026a:	731a      	strb	r2, [r3, #12]
 800026c:	4b04      	ldr	r3, [pc, #16]	; (8000280 <main+0x58>)
 800026e:	2201      	movs	r2, #1
 8000270:	735a      	strb	r2, [r3, #13]
 8000272:	4b03      	ldr	r3, [pc, #12]	; (8000280 <main+0x58>)
 8000274:	4a04      	ldr	r2, [pc, #16]	; (8000288 <main+0x60>)
 8000276:	611a      	str	r2, [r3, #16]
 8000278:	4801      	ldr	r0, [pc, #4]	; (8000280 <main+0x58>)
 800027a:	f000 f9ed 	bl	8000658 <MCAL_EXTI_GPIO_INIT>
 800027e:	e7fe      	b.n	800027e <main+0x56>
 8000280:	20000024 	andcs	r0, r0, r4, lsr #32
 8000284:	08000b08 	stmdaeq	r0, {r3, r8, r9, fp}
 8000288:	08000211 	stmdaeq	r0, {r0, r4, r9}

0800028c <Reset_Handler>:
 800028c:	480d      	ldr	r0, [pc, #52]	; (80002c4 <LoopForever+0x2>)
 800028e:	4685      	mov	sp, r0
 8000290:	f3af 8000 	nop.w
 8000294:	480c      	ldr	r0, [pc, #48]	; (80002c8 <LoopForever+0x6>)
 8000296:	490d      	ldr	r1, [pc, #52]	; (80002cc <LoopForever+0xa>)
 8000298:	4a0d      	ldr	r2, [pc, #52]	; (80002d0 <LoopForever+0xe>)
 800029a:	2300      	movs	r3, #0
 800029c:	e002      	b.n	80002a4 <LoopCopyDataInit>

0800029e <CopyDataInit>:
 800029e:	58d4      	ldr	r4, [r2, r3]
 80002a0:	50c4      	str	r4, [r0, r3]
 80002a2:	3304      	adds	r3, #4

080002a4 <LoopCopyDataInit>:
 80002a4:	18c4      	adds	r4, r0, r3
 80002a6:	428c      	cmp	r4, r1
 80002a8:	d3f9      	bcc.n	800029e <CopyDataInit>
 80002aa:	4a0a      	ldr	r2, [pc, #40]	; (80002d4 <LoopForever+0x12>)
 80002ac:	4c0a      	ldr	r4, [pc, #40]	; (80002d8 <LoopForever+0x16>)
 80002ae:	2300      	movs	r3, #0
 80002b0:	e001      	b.n	80002b6 <LoopFillZerobss>

080002b2 <FillZerobss>:
 80002b2:	6013      	str	r3, [r2, #0]
 80002b4:	3204      	adds	r2, #4

080002b6 <LoopFillZerobss>:
 80002b6:	42a2      	cmp	r2, r4
 80002b8:	d3fb      	bcc.n	80002b2 <FillZerobss>
 80002ba:	f000 fbf5 	bl	8000aa8 <__libc_init_array>
 80002be:	f7ff ffb3 	bl	8000228 <main>

080002c2 <LoopForever>:
 80002c2:	e7fe      	b.n	80002c2 <LoopForever>
 80002c4:	20002800 	andcs	r2, r0, r0, lsl #16
 80002c8:	20000000 	andcs	r0, r0, r0
 80002cc:	20000000 	andcs	r0, r0, r0
 80002d0:	08000b1c 	stmdaeq	r0, {r2, r3, r4, r8, r9, fp}
 80002d4:	20000000 	andcs	r0, r0, r0
 80002d8:	20000074 	andcs	r0, r0, r4, ror r0

080002dc <ADC1_2_IRQHandler>:
 80002dc:	e7fe      	b.n	80002dc <ADC1_2_IRQHandler>
	...

080002e0 <NVIC_ENABLE>:
 80002e0:	b480      	push	{r7}
 80002e2:	b083      	sub	sp, #12
 80002e4:	af00      	add	r7, sp, #0
 80002e6:	4603      	mov	r3, r0
 80002e8:	80fb      	strh	r3, [r7, #6]
 80002ea:	88fb      	ldrh	r3, [r7, #6]
 80002ec:	2b0f      	cmp	r3, #15
 80002ee:	d854      	bhi.n	800039a <NVIC_ENABLE+0xba>
 80002f0:	a201      	add	r2, pc, #4	; (adr r2, 80002f8 <NVIC_ENABLE+0x18>)
 80002f2:	f852 f023 	ldr.w	pc, [r2, r3, lsl #2]
 80002f6:	bf00      	nop
 80002f8:	08000339 	stmdaeq	r0, {r0, r3, r4, r5, r8, r9}
 80002fc:	08000347 	stmdaeq	r0, {r0, r1, r2, r6, r8, r9}
 8000300:	08000355 	stmdaeq	r0, {r0, r2, r4, r6, r8, r9}
 8000304:	08000363 	stmdaeq	r0, {r0, r1, r5, r6, r8, r9}
 8000308:	08000371 	stmdaeq	r0, {r0, r4, r5, r6, r8, r9}
 800030c:	0800037f 	stmdaeq	r0, {r0, r1, r2, r3, r4, r5, r6, r8, r9}
 8000310:	0800037f 	stmdaeq	r0, {r0, r1, r2, r3, r4, r5, r6, r8, r9}
 8000314:	0800037f 	stmdaeq	r0, {r0, r1, r2, r3, r4, r5, r6, r8, r9}
 8000318:	0800037f 	stmdaeq	r0, {r0, r1, r2, r3, r4, r5, r6, r8, r9}
 800031c:	0800037f 	stmdaeq	r0, {r0, r1, r2, r3, r4, r5, r6, r8, r9}
 8000320:	0800038d 	stmdaeq	r0, {r0, r2, r3, r7, r8, r9}
 8000324:	0800038d 	stmdaeq	r0, {r0, r2, r3, r7, r8, r9}
 8000328:	0800038d 	stmdaeq	r0, {r0, r2, r3, r7, r8, r9}
 800032c:	0800038d 	stmdaeq	r0, {r0, r2, r3, r7, r8, r9}
 8000330:	0800038d 	stmdaeq	r0, {r0, r2, r3, r7, r8, r9}
 8000334:	0800038d 	stmdaeq	r0, {r0, r2, r3, r7, r8, r9}
 8000338:	4b1a      	ldr	r3, [pc, #104]	; (80003a4 <NVIC_ENABLE+0xc4>)
 800033a:	681b      	ldr	r3, [r3, #0]
 800033c:	4a19      	ldr	r2, [pc, #100]	; (80003a4 <NVIC_ENABLE+0xc4>)
 800033e:	f043 0340 	orr.w	r3, r3, #64	; 0x40
 8000342:	6013      	str	r3, [r2, #0]
 8000344:	e029      	b.n	800039a <NVIC_ENABLE+0xba>
 8000346:	4b17      	ldr	r3, [pc, #92]	; (80003a4 <NVIC_ENABLE+0xc4>)
 8000348:	681b      	ldr	r3, [r3, #0]
 800034a:	4a16      	ldr	r2, [pc, #88]	; (80003a4 <NVIC_ENABLE+0xc4>)
 800034c:	f043 0380 	orr.w	r3, r3, #128	; 0x80
 8000350:	6013      	str	r3, [r2, #0]
 8000352:	e022      	b.n	800039a <NVIC_ENABLE+0xba>
 8000354:	4b13      	ldr	r3, [pc, #76]	; (80003a4 <NVIC_ENABLE+0xc4>)
 8000356:	681b      	ldr	r3, [r3, #0]
 8000358:	4a12      	ldr	r2, [pc, #72]	; (80003a4 <NVIC_ENABLE+0xc4>)
 800035a:	f443 7380 	orr.w	r3, r3, #256	; 0x100
 800035e:	6013      	str	r3, [r2, #0]
 8000360:	e01b      	b.n	800039a <NVIC_ENABLE+0xba>
 8000362:	4b10      	ldr	r3, [pc, #64]	; (80003a4 <NVIC_ENABLE+0xc4>)
 8000364:	681b      	ldr	r3, [r3, #0]
 8000366:	4a0f      	ldr	r2, [pc, #60]	; (80003a4 <NVIC_ENABLE+0xc4>)
 8000368:	f443 7300 	orr.w	r3, r3, #512	; 0x200
 800036c:	6013      	str	r3, [r2, #0]
 800036e:	e014      	b.n	800039a <NVIC_ENABLE+0xba>
 8000370:	4b0c      	ldr	r3, [pc, #48]	; (80003a4 <NVIC_ENABLE+0xc4>)
 8000372:	681b      	ldr	r3, [r3, #0]
 8000374:	4a0b      	ldr	r2, [pc, #44]	; (80003a4 <NVIC_ENABLE+0xc4>)
 8000376:	f443 6380 	orr.w	r3, r3, #1024	; 0x400
 800037a:	6013      	str	r3, [r2, #0]
 800037c:	e00d      	b.n	800039a <NVIC_ENABLE+0xba>
 800037e:	4b09      	ldr	r3, [pc, #36]	; (80003a4 <NVIC_ENABLE+0xc4>)
 8000380:	681b      	ldr	r3, [r3, #0]
 8000382:	4a08      	ldr	r2, [pc, #32]	; (80003a4 <NVIC_ENABLE+0xc4>)
 8000384:	f443 0300 	orr.w	r3, r3, #8388608	; 0x800000
 8000388:	6013      	str	r3, [r2, #0]
 800038a:	e006      	b.n	800039a <NVIC_ENABLE+0xba>
 800038c:	4b06      	ldr	r3, [pc, #24]	; (80003a8 <NVIC_ENABLE+0xc8>)
 800038e:	681b      	ldr	r3, [r3, #0]
 8000390:	4a05      	ldr	r2, [pc, #20]	; (80003a8 <NVIC_ENABLE+0xc8>)
 8000392:	f443 7380 	orr.w	r3, r3, #256	; 0x100
 8000396:	6013      	str	r3, [r2, #0]
 8000398:	bf00      	nop
 800039a:	bf00      	nop
 800039c:	370c      	adds	r7, #12
 800039e:	46bd      	mov	sp, r7
 80003a0:	bc80      	pop	{r7}
 80003a2:	4770      	bx	lr
 80003a4:	e000e100 	and	lr, r0, r0, lsl #2
 80003a8:	e000e104 	and	lr, r0, r4, lsl #2

080003ac <NVIC_DISABLE>:
 80003ac:	b480      	push	{r7}
 80003ae:	b083      	sub	sp, #12
 80003b0:	af00      	add	r7, sp, #0
 80003b2:	4603      	mov	r3, r0
 80003b4:	80fb      	strh	r3, [r7, #6]
 80003b6:	88fb      	ldrh	r3, [r7, #6]
 80003b8:	2b0f      	cmp	r3, #15
 80003ba:	d854      	bhi.n	8000466 <NVIC_DISABLE+0xba>
 80003bc:	a201      	add	r2, pc, #4	; (adr r2, 80003c4 <NVIC_DISABLE+0x18>)
 80003be:	f852 f023 	ldr.w	pc, [r2, r3, lsl #2]
 80003c2:	bf00      	nop
 80003c4:	08000405 	stmdaeq	r0, {r0, r2, sl}
 80003c8:	08000413 	stmdaeq	r0, {r0, r1, r4, sl}
 80003cc:	08000421 	stmdaeq	r0, {r0, r5, sl}
 80003d0:	0800042f 	stmdaeq	r0, {r0, r1, r2, r3, r5, sl}
 80003d4:	0800043d 	stmdaeq	r0, {r0, r2, r3, r4, r5, sl}
 80003d8:	0800044b 	stmdaeq	r0, {r0, r1, r3, r6, sl}
 80003dc:	0800044b 	stmdaeq	r0, {r0, r1, r3, r6, sl}
 80003e0:	0800044b 	stmdaeq	r0, {r0, r1, r3, r6, sl}
 80003e4:	0800044b 	stmdaeq	r0, {r0, r1, r3, r6, sl}
 80003e8:	0800044b 	stmdaeq	r0, {r0, r1, r3, r6, sl}
 80003ec:	08000459 	stmdaeq	r0, {r0, r3, r4, r6, sl}
 80003f0:	08000459 	stmdaeq	r0, {r0, r3, r4, r6, sl}
 80003f4:	08000459 	stmdaeq	r0, {r0, r3, r4, r6, sl}
 80003f8:	08000459 	stmdaeq	r0, {r0, r3, r4, r6, sl}
 80003fc:	08000459 	stmdaeq	r0, {r0, r3, r4, r6, sl}
 8000400:	08000459 	stmdaeq	r0, {r0, r3, r4, r6, sl}
 8000404:	4b1a      	ldr	r3, [pc, #104]	; (8000470 <NVIC_DISABLE+0xc4>)
 8000406:	681b      	ldr	r3, [r3, #0]
 8000408:	4a19      	ldr	r2, [pc, #100]	; (8000470 <NVIC_DISABLE+0xc4>)
 800040a:	f023 0340 	bic.w	r3, r3, #64	; 0x40
 800040e:	6013      	str	r3, [r2, #0]
 8000410:	e029      	b.n	8000466 <NVIC_DISABLE+0xba>
 8000412:	4b17      	ldr	r3, [pc, #92]	; (8000470 <NVIC_DISABLE+0xc4>)
 8000414:	681b      	ldr	r3, [r3, #0]
 8000416:	4a16      	ldr	r2, [pc, #88]	; (8000470 <NVIC_DISABLE+0xc4>)
 8000418:	f023 0380 	bic.w	r3, r3, #128	; 0x80
 800041c:	6013      	str	r3, [r2, #0]
 800041e:	e022      	b.n	8000466 <NVIC_DISABLE+0xba>
 8000420:	4b13      	ldr	r3, [pc, #76]	; (8000470 <NVIC_DISABLE+0xc4>)
 8000422:	681b      	ldr	r3, [r3, #0]
 8000424:	4a12      	ldr	r2, [pc, #72]	; (8000470 <NVIC_DISABLE+0xc4>)
 8000426:	f423 7380 	bic.w	r3, r3, #256	; 0x100
 800042a:	6013      	str	r3, [r2, #0]
 800042c:	e01b      	b.n	8000466 <NVIC_DISABLE+0xba>
 800042e:	4b10      	ldr	r3, [pc, #64]	; (8000470 <NVIC_DISABLE+0xc4>)
 8000430:	681b      	ldr	r3, [r3, #0]
 8000432:	4a0f      	ldr	r2, [pc, #60]	; (8000470 <NVIC_DISABLE+0xc4>)
 8000434:	f423 7300 	bic.w	r3, r3, #512	; 0x200
 8000438:	6013      	str	r3, [r2, #0]
 800043a:	e014      	b.n	8000466 <NVIC_DISABLE+0xba>
 800043c:	4b0c      	ldr	r3, [pc, #48]	; (8000470 <NVIC_DISABLE+0xc4>)
 800043e:	681b      	ldr	r3, [r3, #0]
 8000440:	4a0b      	ldr	r2, [pc, #44]	; (8000470 <NVIC_DISABLE+0xc4>)
 8000442:	f423 6380 	bic.w	r3, r3, #1024	; 0x400
 8000446:	6013      	str	r3, [r2, #0]
 8000448:	e00d      	b.n	8000466 <NVIC_DISABLE+0xba>
 800044a:	4b09      	ldr	r3, [pc, #36]	; (8000470 <NVIC_DISABLE+0xc4>)
 800044c:	681b      	ldr	r3, [r3, #0]
 800044e:	4a08      	ldr	r2, [pc, #32]	; (8000470 <NVIC_DISABLE+0xc4>)
 8000450:	f423 0300 	bic.w	r3, r3, #8388608	; 0x800000
 8000454:	6013      	str	r3, [r2, #0]
 8000456:	e006      	b.n	8000466 <NVIC_DISABLE+0xba>
 8000458:	4b06      	ldr	r3, [pc, #24]	; (8000474 <NVIC_DISABLE+0xc8>)
 800045a:	681b      	ldr	r3, [r3, #0]
 800045c:	4a05      	ldr	r2, [pc, #20]	; (8000474 <NVIC_DISABLE+0xc8>)
 800045e:	f423 7380 	bic.w	r3, r3, #256	; 0x100
 8000462:	6013      	str	r3, [r2, #0]
 8000464:	bf00      	nop
 8000466:	bf00      	nop
 8000468:	370c      	adds	r7, #12
 800046a:	46bd      	mov	sp, r7
 800046c:	bc80      	pop	{r7}
 800046e:	4770      	bx	lr
 8000470:	e000e180 	and	lr, r0, r0, lsl #3
 8000474:	e000e184 	and	lr, r0, r4, lsl #3

08000478 <Updata>:
 8000478:	b580      	push	{r7, lr}
 800047a:	b084      	sub	sp, #16
 800047c:	af00      	add	r7, sp, #0
 800047e:	6078      	str	r0, [r7, #4]
 8000480:	687b      	ldr	r3, [r7, #4]
 8000482:	891b      	ldrh	r3, [r3, #8]
 8000484:	813b      	strh	r3, [r7, #8]
 8000486:	2301      	movs	r3, #1
 8000488:	72bb      	strb	r3, [r7, #10]
 800048a:	687b      	ldr	r3, [r7, #4]
 800048c:	685b      	ldr	r3, [r3, #4]
 800048e:	f107 0208 	add.w	r2, r7, #8
 8000492:	4611      	mov	r1, r2
 8000494:	4618      	mov	r0, r3
 8000496:	f000 fa3b 	bl	8000910 <GPIOx_init>
 800049a:	687b      	ldr	r3, [r7, #4]
 800049c:	781b      	ldrb	r3, [r3, #0]
 800049e:	089b      	lsrs	r3, r3, #2
 80004a0:	73fb      	strb	r3, [r7, #15]
 80004a2:	687b      	ldr	r3, [r7, #4]
 80004a4:	781b      	ldrb	r3, [r3, #0]
 80004a6:	f003 0303 	and.w	r3, r3, #3
 80004aa:	b2db      	uxtb	r3, r3
 80004ac:	009b      	lsls	r3, r3, #2
 80004ae:	73bb      	strb	r3, [r7, #14]
 80004b0:	4a62      	ldr	r2, [pc, #392]	; (800063c <Updata+0x1c4>)
 80004b2:	7bfb      	ldrb	r3, [r7, #15]
 80004b4:	3302      	adds	r3, #2
 80004b6:	f852 2023 	ldr.w	r2, [r2, r3, lsl #2]
 80004ba:	7bbb      	ldrb	r3, [r7, #14]
 80004bc:	210f      	movs	r1, #15
 80004be:	fa01 f303 	lsl.w	r3, r1, r3
 80004c2:	43db      	mvns	r3, r3
 80004c4:	4618      	mov	r0, r3
 80004c6:	495d      	ldr	r1, [pc, #372]	; (800063c <Updata+0x1c4>)
 80004c8:	7bfb      	ldrb	r3, [r7, #15]
 80004ca:	4002      	ands	r2, r0
 80004cc:	3302      	adds	r3, #2
 80004ce:	f841 2023 	str.w	r2, [r1, r3, lsl #2]
 80004d2:	4a5a      	ldr	r2, [pc, #360]	; (800063c <Updata+0x1c4>)
 80004d4:	7bfb      	ldrb	r3, [r7, #15]
 80004d6:	3302      	adds	r3, #2
 80004d8:	f852 2023 	ldr.w	r2, [r2, r3, lsl #2]
 80004dc:	687b      	ldr	r3, [r7, #4]
 80004de:	685b      	ldr	r3, [r3, #4]
 80004e0:	4957      	ldr	r1, [pc, #348]	; (8000640 <Updata+0x1c8>)
 80004e2:	428b      	cmp	r3, r1
 80004e4:	d016      	beq.n	8000514 <Updata+0x9c>
 80004e6:	687b      	ldr	r3, [r7, #4]
 80004e8:	685b      	ldr	r3, [r3, #4]
 80004ea:	4956      	ldr	r1, [pc, #344]	; (8000644 <Updata+0x1cc>)
 80004ec:	428b      	cmp	r3, r1
 80004ee:	d00f      	beq.n	8000510 <Updata+0x98>
 80004f0:	687b      	ldr	r3, [r7, #4]
 80004f2:	685b      	ldr	r3, [r3, #4]
 80004f4:	4954      	ldr	r1, [pc, #336]	; (8000648 <Updata+0x1d0>)
 80004f6:	428b      	cmp	r3, r1
 80004f8:	d008      	beq.n	800050c <Updata+0x94>
 80004fa:	687b      	ldr	r3, [r7, #4]
 80004fc:	685b      	ldr	r3, [r3, #4]
 80004fe:	4953      	ldr	r1, [pc, #332]	; (800064c <Updata+0x1d4>)
 8000500:	428b      	cmp	r3, r1
 8000502:	d101      	bne.n	8000508 <Updata+0x90>
 8000504:	2303      	movs	r3, #3
 8000506:	e006      	b.n	8000516 <Updata+0x9e>
 8000508:	2300      	movs	r3, #0
 800050a:	e004      	b.n	8000516 <Updata+0x9e>
 800050c:	2302      	movs	r3, #2
 800050e:	e002      	b.n	8000516 <Updata+0x9e>
 8000510:	2301      	movs	r3, #1
 8000512:	e000      	b.n	8000516 <Updata+0x9e>
 8000514:	2300      	movs	r3, #0
 8000516:	7bb9      	ldrb	r1, [r7, #14]
 8000518:	408b      	lsls	r3, r1
 800051a:	4618      	mov	r0, r3
 800051c:	4947      	ldr	r1, [pc, #284]	; (800063c <Updata+0x1c4>)
 800051e:	7bfb      	ldrb	r3, [r7, #15]
 8000520:	4302      	orrs	r2, r0
 8000522:	3302      	adds	r3, #2
 8000524:	f841 2023 	str.w	r2, [r1, r3, lsl #2]
 8000528:	4b49      	ldr	r3, [pc, #292]	; (8000650 <Updata+0x1d8>)
 800052a:	689b      	ldr	r3, [r3, #8]
 800052c:	687a      	ldr	r2, [r7, #4]
 800052e:	7812      	ldrb	r2, [r2, #0]
 8000530:	4611      	mov	r1, r2
 8000532:	2201      	movs	r2, #1
 8000534:	408a      	lsls	r2, r1
 8000536:	43d2      	mvns	r2, r2
 8000538:	4611      	mov	r1, r2
 800053a:	4a45      	ldr	r2, [pc, #276]	; (8000650 <Updata+0x1d8>)
 800053c:	400b      	ands	r3, r1
 800053e:	6093      	str	r3, [r2, #8]
 8000540:	4b43      	ldr	r3, [pc, #268]	; (8000650 <Updata+0x1d8>)
 8000542:	68db      	ldr	r3, [r3, #12]
 8000544:	687a      	ldr	r2, [r7, #4]
 8000546:	7812      	ldrb	r2, [r2, #0]
 8000548:	4611      	mov	r1, r2
 800054a:	2201      	movs	r2, #1
 800054c:	408a      	lsls	r2, r1
 800054e:	43d2      	mvns	r2, r2
 8000550:	4611      	mov	r1, r2
 8000552:	4a3f      	ldr	r2, [pc, #252]	; (8000650 <Updata+0x1d8>)
 8000554:	400b      	ands	r3, r1
 8000556:	60d3      	str	r3, [r2, #12]
 8000558:	687b      	ldr	r3, [r7, #4]
 800055a:	7b1b      	ldrb	r3, [r3, #12]
 800055c:	2b01      	cmp	r3, #1
 800055e:	d10b      	bne.n	8000578 <Updata+0x100>
 8000560:	4b3b      	ldr	r3, [pc, #236]	; (8000650 <Updata+0x1d8>)
 8000562:	689b      	ldr	r3, [r3, #8]
 8000564:	687a      	ldr	r2, [r7, #4]
 8000566:	7812      	ldrb	r2, [r2, #0]
 8000568:	4611      	mov	r1, r2
 800056a:	2201      	movs	r2, #1
 800056c:	408a      	lsls	r2, r1
 800056e:	4611      	mov	r1, r2
 8000570:	4a37      	ldr	r2, [pc, #220]	; (8000650 <Updata+0x1d8>)
 8000572:	430b      	orrs	r3, r1
 8000574:	6093      	str	r3, [r2, #8]
 8000576:	e029      	b.n	80005cc <Updata+0x154>
 8000578:	687b      	ldr	r3, [r7, #4]
 800057a:	7b1b      	ldrb	r3, [r3, #12]
 800057c:	2b00      	cmp	r3, #0
 800057e:	d10b      	bne.n	8000598 <Updata+0x120>
 8000580:	4b33      	ldr	r3, [pc, #204]	; (8000650 <Updata+0x1d8>)
 8000582:	68db      	ldr	r3, [r3, #12]
 8000584:	687a      	ldr	r2, [r7, #4]
 8000586:	7812      	ldrb	r2, [r2, #0]
 8000588:	4611      	mov	r1, r2
 800058a:	2201      	movs	r2, #1
 800058c:	408a      	lsls	r2, r1
 800058e:	4611      	mov	r1, r2
 8000590:	4a2f      	ldr	r2, [pc, #188]	; (8000650 <Updata+0x1d8>)
 8000592:	430b      	orrs	r3, r1
 8000594:	60d3      	str	r3, [r2, #12]
 8000596:	e019      	b.n	80005cc <Updata+0x154>
 8000598:	687b      	ldr	r3, [r7, #4]
 800059a:	7b1b      	ldrb	r3, [r3, #12]
 800059c:	2b02      	cmp	r3, #2
 800059e:	d115      	bne.n	80005cc <Updata+0x154>
 80005a0:	4b2b      	ldr	r3, [pc, #172]	; (8000650 <Updata+0x1d8>)
 80005a2:	689b      	ldr	r3, [r3, #8]
 80005a4:	687a      	ldr	r2, [r7, #4]
 80005a6:	7812      	ldrb	r2, [r2, #0]
 80005a8:	4611      	mov	r1, r2
 80005aa:	2201      	movs	r2, #1
 80005ac:	408a      	lsls	r2, r1
 80005ae:	4611      	mov	r1, r2
 80005b0:	4a27      	ldr	r2, [pc, #156]	; (8000650 <Updata+0x1d8>)
 80005b2:	430b      	orrs	r3, r1
 80005b4:	6093      	str	r3, [r2, #8]
 80005b6:	4b26      	ldr	r3, [pc, #152]	; (8000650 <Updata+0x1d8>)
 80005b8:	68db      	ldr	r3, [r3, #12]
 80005ba:	687a      	ldr	r2, [r7, #4]
 80005bc:	7812      	ldrb	r2, [r2, #0]
 80005be:	4611      	mov	r1, r2
 80005c0:	2201      	movs	r2, #1
 80005c2:	408a      	lsls	r2, r1
 80005c4:	4611      	mov	r1, r2
 80005c6:	4a22      	ldr	r2, [pc, #136]	; (8000650 <Updata+0x1d8>)
 80005c8:	430b      	orrs	r3, r1
 80005ca:	60d3      	str	r3, [r2, #12]
 80005cc:	687b      	ldr	r3, [r7, #4]
 80005ce:	781b      	ldrb	r3, [r3, #0]
 80005d0:	4619      	mov	r1, r3
 80005d2:	687b      	ldr	r3, [r7, #4]
 80005d4:	691b      	ldr	r3, [r3, #16]
 80005d6:	4a1f      	ldr	r2, [pc, #124]	; (8000654 <Updata+0x1dc>)
 80005d8:	f842 3021 	str.w	r3, [r2, r1, lsl #2]
 80005dc:	687b      	ldr	r3, [r7, #4]
 80005de:	7b5b      	ldrb	r3, [r3, #13]
 80005e0:	2b01      	cmp	r3, #1
 80005e2:	d111      	bne.n	8000608 <Updata+0x190>
 80005e4:	4b1a      	ldr	r3, [pc, #104]	; (8000650 <Updata+0x1d8>)
 80005e6:	681b      	ldr	r3, [r3, #0]
 80005e8:	687a      	ldr	r2, [r7, #4]
 80005ea:	7812      	ldrb	r2, [r2, #0]
 80005ec:	4611      	mov	r1, r2
 80005ee:	2201      	movs	r2, #1
 80005f0:	408a      	lsls	r2, r1
 80005f2:	4611      	mov	r1, r2
 80005f4:	4a16      	ldr	r2, [pc, #88]	; (8000650 <Updata+0x1d8>)
 80005f6:	430b      	orrs	r3, r1
 80005f8:	6013      	str	r3, [r2, #0]
 80005fa:	687b      	ldr	r3, [r7, #4]
 80005fc:	781b      	ldrb	r3, [r3, #0]
 80005fe:	b29b      	uxth	r3, r3
 8000600:	4618      	mov	r0, r3
 8000602:	f7ff fe6d 	bl	80002e0 <NVIC_ENABLE>
 8000606:	e015      	b.n	8000634 <Updata+0x1bc>
 8000608:	687b      	ldr	r3, [r7, #4]
 800060a:	7b5b      	ldrb	r3, [r3, #13]
 800060c:	2b00      	cmp	r3, #0
 800060e:	d111      	bne.n	8000634 <Updata+0x1bc>
 8000610:	4b0f      	ldr	r3, [pc, #60]	; (8000650 <Updata+0x1d8>)
 8000612:	681b      	ldr	r3, [r3, #0]
 8000614:	687a      	ldr	r2, [r7, #4]
 8000616:	7812      	ldrb	r2, [r2, #0]
 8000618:	4611      	mov	r1, r2
 800061a:	2201      	movs	r2, #1
 800061c:	408a      	lsls	r2, r1
 800061e:	43d2      	mvns	r2, r2
 8000620:	4611      	mov	r1, r2
 8000622:	4a0b      	ldr	r2, [pc, #44]	; (8000650 <Updata+0x1d8>)
 8000624:	400b      	ands	r3, r1
 8000626:	6013      	str	r3, [r2, #0]
 8000628:	687b      	ldr	r3, [r7, #4]
 800062a:	781b      	ldrb	r3, [r3, #0]
 800062c:	b29b      	uxth	r3, r3
 800062e:	4618      	mov	r0, r3
 8000630:	f7ff febc 	bl	80003ac <NVIC_DISABLE>
 8000634:	bf00      	nop
 8000636:	3710      	adds	r7, #16
 8000638:	46bd      	mov	sp, r7
 800063a:	bd80      	pop	{r7, pc}
 800063c:	40010000 	andmi	r0, r1, r0
 8000640:	40010800 	andmi	r0, r1, r0, lsl #16
 8000644:	40010c00 	andmi	r0, r1, r0, lsl #24
 8000648:	40011000 	andmi	r1, r1, r0
 800064c:	40011400 	andmi	r1, r1, r0, lsl #8
 8000650:	40010400 	andmi	r0, r1, r0, lsl #8
 8000654:	20000038 	andcs	r0, r0, r8, lsr r0

08000658 <MCAL_EXTI_GPIO_INIT>:
 8000658:	b580      	push	{r7, lr}
 800065a:	b082      	sub	sp, #8
 800065c:	af00      	add	r7, sp, #0
 800065e:	6078      	str	r0, [r7, #4]
 8000660:	6878      	ldr	r0, [r7, #4]
 8000662:	f7ff ff09 	bl	8000478 <Updata>
 8000666:	bf00      	nop
 8000668:	3708      	adds	r7, #8
 800066a:	46bd      	mov	sp, r7
 800066c:	bd80      	pop	{r7, pc}
	...

08000670 <EXTI0_IRQHandler>:
 8000670:	b580      	push	{r7, lr}
 8000672:	af00      	add	r7, sp, #0
 8000674:	4b03      	ldr	r3, [pc, #12]	; (8000684 <EXTI0_IRQHandler+0x14>)
 8000676:	2201      	movs	r2, #1
 8000678:	615a      	str	r2, [r3, #20]
 800067a:	4b03      	ldr	r3, [pc, #12]	; (8000688 <EXTI0_IRQHandler+0x18>)
 800067c:	681b      	ldr	r3, [r3, #0]
 800067e:	4798      	blx	r3
 8000680:	bf00      	nop
 8000682:	bd80      	pop	{r7, pc}
 8000684:	40010400 	andmi	r0, r1, r0, lsl #8
 8000688:	20000038 	andcs	r0, r0, r8, lsr r0

0800068c <EXTI1_IRQHandler>:
 800068c:	b580      	push	{r7, lr}
 800068e:	af00      	add	r7, sp, #0
 8000690:	4b03      	ldr	r3, [pc, #12]	; (80006a0 <EXTI1_IRQHandler+0x14>)
 8000692:	2202      	movs	r2, #2
 8000694:	615a      	str	r2, [r3, #20]
 8000696:	4b03      	ldr	r3, [pc, #12]	; (80006a4 <EXTI1_IRQHandler+0x18>)
 8000698:	685b      	ldr	r3, [r3, #4]
 800069a:	4798      	blx	r3
 800069c:	bf00      	nop
 800069e:	bd80      	pop	{r7, pc}
 80006a0:	40010400 	andmi	r0, r1, r0, lsl #8
 80006a4:	20000038 	andcs	r0, r0, r8, lsr r0

080006a8 <EXTI2_IRQHandler>:
 80006a8:	b580      	push	{r7, lr}
 80006aa:	af00      	add	r7, sp, #0
 80006ac:	4b03      	ldr	r3, [pc, #12]	; (80006bc <EXTI2_IRQHandler+0x14>)
 80006ae:	2204      	movs	r2, #4
 80006b0:	615a      	str	r2, [r3, #20]
 80006b2:	4b03      	ldr	r3, [pc, #12]	; (80006c0 <EXTI2_IRQHandler+0x18>)
 80006b4:	689b      	ldr	r3, [r3, #8]
 80006b6:	4798      	blx	r3
 80006b8:	bf00      	nop
 80006ba:	bd80      	pop	{r7, pc}
 80006bc:	40010400 	andmi	r0, r1, r0, lsl #8
 80006c0:	20000038 	andcs	r0, r0, r8, lsr r0

080006c4 <EXTI3_IRQHandler>:
 80006c4:	b580      	push	{r7, lr}
 80006c6:	af00      	add	r7, sp, #0
 80006c8:	4b03      	ldr	r3, [pc, #12]	; (80006d8 <EXTI3_IRQHandler+0x14>)
 80006ca:	2208      	movs	r2, #8
 80006cc:	615a      	str	r2, [r3, #20]
 80006ce:	4b03      	ldr	r3, [pc, #12]	; (80006dc <EXTI3_IRQHandler+0x18>)
 80006d0:	68db      	ldr	r3, [r3, #12]
 80006d2:	4798      	blx	r3
 80006d4:	bf00      	nop
 80006d6:	bd80      	pop	{r7, pc}
 80006d8:	40010400 	andmi	r0, r1, r0, lsl #8
 80006dc:	20000038 	andcs	r0, r0, r8, lsr r0

080006e0 <EXTI4_IRQHandler>:
 80006e0:	b580      	push	{r7, lr}
 80006e2:	af00      	add	r7, sp, #0
 80006e4:	4b03      	ldr	r3, [pc, #12]	; (80006f4 <EXTI4_IRQHandler+0x14>)
 80006e6:	2210      	movs	r2, #16
 80006e8:	615a      	str	r2, [r3, #20]
 80006ea:	4b03      	ldr	r3, [pc, #12]	; (80006f8 <EXTI4_IRQHandler+0x18>)
 80006ec:	691b      	ldr	r3, [r3, #16]
 80006ee:	4798      	blx	r3
 80006f0:	bf00      	nop
 80006f2:	bd80      	pop	{r7, pc}
 80006f4:	40010400 	andmi	r0, r1, r0, lsl #8
 80006f8:	20000038 	andcs	r0, r0, r8, lsr r0

080006fc <EXTI9_5_IRQHandler>:
 80006fc:	b580      	push	{r7, lr}
 80006fe:	af00      	add	r7, sp, #0
 8000700:	4b1f      	ldr	r3, [pc, #124]	; (8000780 <EXTI9_5_IRQHandler+0x84>)
 8000702:	695b      	ldr	r3, [r3, #20]
 8000704:	f003 0320 	and.w	r3, r3, #32
 8000708:	2b00      	cmp	r3, #0
 800070a:	d005      	beq.n	8000718 <EXTI9_5_IRQHandler+0x1c>
 800070c:	4b1c      	ldr	r3, [pc, #112]	; (8000780 <EXTI9_5_IRQHandler+0x84>)
 800070e:	2220      	movs	r2, #32
 8000710:	615a      	str	r2, [r3, #20]
 8000712:	4b1c      	ldr	r3, [pc, #112]	; (8000784 <EXTI9_5_IRQHandler+0x88>)
 8000714:	695b      	ldr	r3, [r3, #20]
 8000716:	4798      	blx	r3
 8000718:	4b19      	ldr	r3, [pc, #100]	; (8000780 <EXTI9_5_IRQHandler+0x84>)
 800071a:	695b      	ldr	r3, [r3, #20]
 800071c:	f003 0340 	and.w	r3, r3, #64	; 0x40
 8000720:	2b00      	cmp	r3, #0
 8000722:	d005      	beq.n	8000730 <EXTI9_5_IRQHandler+0x34>
 8000724:	4b16      	ldr	r3, [pc, #88]	; (8000780 <EXTI9_5_IRQHandler+0x84>)
 8000726:	2240      	movs	r2, #64	; 0x40
 8000728:	615a      	str	r2, [r3, #20]
 800072a:	4b16      	ldr	r3, [pc, #88]	; (8000784 <EXTI9_5_IRQHandler+0x88>)
 800072c:	699b      	ldr	r3, [r3, #24]
 800072e:	4798      	blx	r3
 8000730:	4b13      	ldr	r3, [pc, #76]	; (8000780 <EXTI9_5_IRQHandler+0x84>)
 8000732:	695b      	ldr	r3, [r3, #20]
 8000734:	f003 0380 	and.w	r3, r3, #128	; 0x80
 8000738:	2b00      	cmp	r3, #0
 800073a:	d005      	beq.n	8000748 <EXTI9_5_IRQHandler+0x4c>
 800073c:	4b10      	ldr	r3, [pc, #64]	; (8000780 <EXTI9_5_IRQHandler+0x84>)
 800073e:	2280      	movs	r2, #128	; 0x80
 8000740:	615a      	str	r2, [r3, #20]
 8000742:	4b10      	ldr	r3, [pc, #64]	; (8000784 <EXTI9_5_IRQHandler+0x88>)
 8000744:	69db      	ldr	r3, [r3, #28]
 8000746:	4798      	blx	r3
 8000748:	4b0d      	ldr	r3, [pc, #52]	; (8000780 <EXTI9_5_IRQHandler+0x84>)
 800074a:	695b      	ldr	r3, [r3, #20]
 800074c:	f403 7380 	and.w	r3, r3, #256	; 0x100
 8000750:	2b00      	cmp	r3, #0
 8000752:	d006      	beq.n	8000762 <EXTI9_5_IRQHandler+0x66>
 8000754:	4b0a      	ldr	r3, [pc, #40]	; (8000780 <EXTI9_5_IRQHandler+0x84>)
 8000756:	f44f 7280 	mov.w	r2, #256	; 0x100
 800075a:	615a      	str	r2, [r3, #20]
 800075c:	4b09      	ldr	r3, [pc, #36]	; (8000784 <EXTI9_5_IRQHandler+0x88>)
 800075e:	6a1b      	ldr	r3, [r3, #32]
 8000760:	4798      	blx	r3
 8000762:	4b07      	ldr	r3, [pc, #28]	; (8000780 <EXTI9_5_IRQHandler+0x84>)
 8000764:	695b      	ldr	r3, [r3, #20]
 8000766:	f403 7300 	and.w	r3, r3, #512	; 0x200
 800076a:	2b00      	cmp	r3, #0
 800076c:	d006      	beq.n	800077c <EXTI9_5_IRQHandler+0x80>
 800076e:	4b04      	ldr	r3, [pc, #16]	; (8000780 <EXTI9_5_IRQHandler+0x84>)
 8000770:	f44f 7200 	mov.w	r2, #512	; 0x200
 8000774:	615a      	str	r2, [r3, #20]
 8000776:	4b03      	ldr	r3, [pc, #12]	; (8000784 <EXTI9_5_IRQHandler+0x88>)
 8000778:	6a5b      	ldr	r3, [r3, #36]	; 0x24
 800077a:	4798      	blx	r3
 800077c:	bf00      	nop
 800077e:	bd80      	pop	{r7, pc}
 8000780:	40010400 	andmi	r0, r1, r0, lsl #8
 8000784:	20000038 	andcs	r0, r0, r8, lsr r0

08000788 <EXTI15_10_IRQHandler>:
 8000788:	b580      	push	{r7, lr}
 800078a:	af00      	add	r7, sp, #0
 800078c:	4b2d      	ldr	r3, [pc, #180]	; (8000844 <EXTI15_10_IRQHandler+0xbc>)
 800078e:	695b      	ldr	r3, [r3, #20]
 8000790:	f403 6380 	and.w	r3, r3, #1024	; 0x400
 8000794:	2b00      	cmp	r3, #0
 8000796:	d008      	beq.n	80007aa <EXTI15_10_IRQHandler+0x22>
 8000798:	4b2a      	ldr	r3, [pc, #168]	; (8000844 <EXTI15_10_IRQHandler+0xbc>)
 800079a:	695b      	ldr	r3, [r3, #20]
 800079c:	4a29      	ldr	r2, [pc, #164]	; (8000844 <EXTI15_10_IRQHandler+0xbc>)
 800079e:	f443 6380 	orr.w	r3, r3, #1024	; 0x400
 80007a2:	6153      	str	r3, [r2, #20]
 80007a4:	4b28      	ldr	r3, [pc, #160]	; (8000848 <EXTI15_10_IRQHandler+0xc0>)
 80007a6:	6a9b      	ldr	r3, [r3, #40]	; 0x28
 80007a8:	4798      	blx	r3
 80007aa:	4b26      	ldr	r3, [pc, #152]	; (8000844 <EXTI15_10_IRQHandler+0xbc>)
 80007ac:	695b      	ldr	r3, [r3, #20]
 80007ae:	f403 6300 	and.w	r3, r3, #2048	; 0x800
 80007b2:	2b00      	cmp	r3, #0
 80007b4:	d008      	beq.n	80007c8 <EXTI15_10_IRQHandler+0x40>
 80007b6:	4b23      	ldr	r3, [pc, #140]	; (8000844 <EXTI15_10_IRQHandler+0xbc>)
 80007b8:	695b      	ldr	r3, [r3, #20]
 80007ba:	4a22      	ldr	r2, [pc, #136]	; (8000844 <EXTI15_10_IRQHandler+0xbc>)
 80007bc:	f443 6300 	orr.w	r3, r3, #2048	; 0x800
 80007c0:	6153      	str	r3, [r2, #20]
 80007c2:	4b21      	ldr	r3, [pc, #132]	; (8000848 <EXTI15_10_IRQHandler+0xc0>)
 80007c4:	6adb      	ldr	r3, [r3, #44]	; 0x2c
 80007c6:	4798      	blx	r3
 80007c8:	4b1e      	ldr	r3, [pc, #120]	; (8000844 <EXTI15_10_IRQHandler+0xbc>)
 80007ca:	695b      	ldr	r3, [r3, #20]
 80007cc:	f403 5380 	and.w	r3, r3, #4096	; 0x1000
 80007d0:	2b00      	cmp	r3, #0
 80007d2:	d008      	beq.n	80007e6 <EXTI15_10_IRQHandler+0x5e>
 80007d4:	4b1b      	ldr	r3, [pc, #108]	; (8000844 <EXTI15_10_IRQHandler+0xbc>)
 80007d6:	695b      	ldr	r3, [r3, #20]
 80007d8:	4a1a      	ldr	r2, [pc, #104]	; (8000844 <EXTI15_10_IRQHandler+0xbc>)
 80007da:	f443 5380 	orr.w	r3, r3, #4096	; 0x1000
 80007de:	6153      	str	r3, [r2, #20]
 80007e0:	4b19      	ldr	r3, [pc, #100]	; (8000848 <EXTI15_10_IRQHandler+0xc0>)
 80007e2:	6b1b      	ldr	r3, [r3, #48]	; 0x30
 80007e4:	4798      	blx	r3
 80007e6:	4b17      	ldr	r3, [pc, #92]	; (8000844 <EXTI15_10_IRQHandler+0xbc>)
 80007e8:	695b      	ldr	r3, [r3, #20]
 80007ea:	f403 5300 	and.w	r3, r3, #8192	; 0x2000
 80007ee:	2b00      	cmp	r3, #0
 80007f0:	d008      	beq.n	8000804 <EXTI15_10_IRQHandler+0x7c>
 80007f2:	4b14      	ldr	r3, [pc, #80]	; (8000844 <EXTI15_10_IRQHandler+0xbc>)
 80007f4:	695b      	ldr	r3, [r3, #20]
 80007f6:	4a13      	ldr	r2, [pc, #76]	; (8000844 <EXTI15_10_IRQHandler+0xbc>)
 80007f8:	f443 5300 	orr.w	r3, r3, #8192	; 0x2000
 80007fc:	6153      	str	r3, [r2, #20]
 80007fe:	4b12      	ldr	r3, [pc, #72]	; (8000848 <EXTI15_10_IRQHandler+0xc0>)
 8000800:	6b5b      	ldr	r3, [r3, #52]	; 0x34
 8000802:	4798      	blx	r3
 8000804:	4b0f      	ldr	r3, [pc, #60]	; (8000844 <EXTI15_10_IRQHandler+0xbc>)
 8000806:	695b      	ldr	r3, [r3, #20]
 8000808:	f403 4380 	and.w	r3, r3, #16384	; 0x4000
 800080c:	2b00      	cmp	r3, #0
 800080e:	d008      	beq.n	8000822 <EXTI15_10_IRQHandler+0x9a>
 8000810:	4b0c      	ldr	r3, [pc, #48]	; (8000844 <EXTI15_10_IRQHandler+0xbc>)
 8000812:	695b      	ldr	r3, [r3, #20]
 8000814:	4a0b      	ldr	r2, [pc, #44]	; (8000844 <EXTI15_10_IRQHandler+0xbc>)
 8000816:	f443 4380 	orr.w	r3, r3, #16384	; 0x4000
 800081a:	6153      	str	r3, [r2, #20]
 800081c:	4b0a      	ldr	r3, [pc, #40]	; (8000848 <EXTI15_10_IRQHandler+0xc0>)
 800081e:	6b9b      	ldr	r3, [r3, #56]	; 0x38
 8000820:	4798      	blx	r3
 8000822:	4b08      	ldr	r3, [pc, #32]	; (8000844 <EXTI15_10_IRQHandler+0xbc>)
 8000824:	695b      	ldr	r3, [r3, #20]
 8000826:	f403 4380 	and.w	r3, r3, #16384	; 0x4000
 800082a:	2b00      	cmp	r3, #0
 800082c:	d008      	beq.n	8000840 <EXTI15_10_IRQHandler+0xb8>
 800082e:	4b05      	ldr	r3, [pc, #20]	; (8000844 <EXTI15_10_IRQHandler+0xbc>)
 8000830:	695b      	ldr	r3, [r3, #20]
 8000832:	4a04      	ldr	r2, [pc, #16]	; (8000844 <EXTI15_10_IRQHandler+0xbc>)
 8000834:	f443 4300 	orr.w	r3, r3, #32768	; 0x8000
 8000838:	6153      	str	r3, [r2, #20]
 800083a:	4b03      	ldr	r3, [pc, #12]	; (8000848 <EXTI15_10_IRQHandler+0xc0>)
 800083c:	6bdb      	ldr	r3, [r3, #60]	; 0x3c
 800083e:	4798      	blx	r3
 8000840:	bf00      	nop
 8000842:	bd80      	pop	{r7, pc}
 8000844:	40010400 	andmi	r0, r1, r0, lsl #8
 8000848:	20000038 	andcs	r0, r0, r8, lsr r0

0800084c <get_pin>:
 800084c:	b480      	push	{r7}
 800084e:	b083      	sub	sp, #12
 8000850:	af00      	add	r7, sp, #0
 8000852:	4603      	mov	r3, r0
 8000854:	80fb      	strh	r3, [r7, #6]
 8000856:	88fb      	ldrh	r3, [r7, #6]
 8000858:	2b80      	cmp	r3, #128	; 0x80
 800085a:	d042      	beq.n	80008e2 <get_pin+0x96>
 800085c:	2b80      	cmp	r3, #128	; 0x80
 800085e:	dc11      	bgt.n	8000884 <get_pin+0x38>
 8000860:	2b08      	cmp	r3, #8
 8000862:	d036      	beq.n	80008d2 <get_pin+0x86>
 8000864:	2b08      	cmp	r3, #8
 8000866:	dc06      	bgt.n	8000876 <get_pin+0x2a>
 8000868:	2b02      	cmp	r3, #2
 800086a:	d02e      	beq.n	80008ca <get_pin+0x7e>
 800086c:	2b04      	cmp	r3, #4
 800086e:	d02e      	beq.n	80008ce <get_pin+0x82>
 8000870:	2b01      	cmp	r3, #1
 8000872:	d028      	beq.n	80008c6 <get_pin+0x7a>
 8000874:	e047      	b.n	8000906 <get_pin+0xba>
 8000876:	2b20      	cmp	r3, #32
 8000878:	d02f      	beq.n	80008da <get_pin+0x8e>
 800087a:	2b40      	cmp	r3, #64	; 0x40
 800087c:	d02f      	beq.n	80008de <get_pin+0x92>
 800087e:	2b10      	cmp	r3, #16
 8000880:	d029      	beq.n	80008d6 <get_pin+0x8a>
 8000882:	e040      	b.n	8000906 <get_pin+0xba>
 8000884:	f5b3 6f00 	cmp.w	r3, #2048	; 0x800
 8000888:	d033      	beq.n	80008f2 <get_pin+0xa6>
 800088a:	f5b3 6f00 	cmp.w	r3, #2048	; 0x800
 800088e:	dc09      	bgt.n	80008a4 <get_pin+0x58>
 8000890:	f5b3 7f00 	cmp.w	r3, #512	; 0x200
 8000894:	d029      	beq.n	80008ea <get_pin+0x9e>
 8000896:	f5b3 6f80 	cmp.w	r3, #1024	; 0x400
 800089a:	d028      	beq.n	80008ee <get_pin+0xa2>
 800089c:	f5b3 7f80 	cmp.w	r3, #256	; 0x100
 80008a0:	d021      	beq.n	80008e6 <get_pin+0x9a>
 80008a2:	e030      	b.n	8000906 <get_pin+0xba>
 80008a4:	f5b3 5f00 	cmp.w	r3, #8192	; 0x2000
 80008a8:	d027      	beq.n	80008fa <get_pin+0xae>
 80008aa:	f5b3 5f00 	cmp.w	r3, #8192	; 0x2000
 80008ae:	dc03      	bgt.n	80008b8 <get_pin+0x6c>
 80008b0:	f5b3 5f80 	cmp.w	r3, #4096	; 0x1000
 80008b4:	d01f      	beq.n	80008f6 <get_pin+0xaa>
 80008b6:	e026      	b.n	8000906 <get_pin+0xba>
 80008b8:	f5b3 4f80 	cmp.w	r3, #16384	; 0x4000
 80008bc:	d01f      	beq.n	80008fe <get_pin+0xb2>
 80008be:	f5b3 4f00 	cmp.w	r3, #32768	; 0x8000
 80008c2:	d01e      	beq.n	8000902 <get_pin+0xb6>
 80008c4:	e01f      	b.n	8000906 <get_pin+0xba>
 80008c6:	2300      	movs	r3, #0
 80008c8:	e01d      	b.n	8000906 <get_pin+0xba>
 80008ca:	2304      	movs	r3, #4
 80008cc:	e01b      	b.n	8000906 <get_pin+0xba>
 80008ce:	2308      	movs	r3, #8
 80008d0:	e019      	b.n	8000906 <get_pin+0xba>
 80008d2:	230c      	movs	r3, #12
 80008d4:	e017      	b.n	8000906 <get_pin+0xba>
 80008d6:	2310      	movs	r3, #16
 80008d8:	e015      	b.n	8000906 <get_pin+0xba>
 80008da:	2314      	movs	r3, #20
 80008dc:	e013      	b.n	8000906 <get_pin+0xba>
 80008de:	2318      	movs	r3, #24
 80008e0:	e011      	b.n	8000906 <get_pin+0xba>
 80008e2:	231c      	movs	r3, #28
 80008e4:	e00f      	b.n	8000906 <get_pin+0xba>
 80008e6:	2300      	movs	r3, #0
 80008e8:	e00d      	b.n	8000906 <get_pin+0xba>
 80008ea:	2304      	movs	r3, #4
 80008ec:	e00b      	b.n	8000906 <get_pin+0xba>
 80008ee:	2308      	movs	r3, #8
 80008f0:	e009      	b.n	8000906 <get_pin+0xba>
 80008f2:	230c      	movs	r3, #12
 80008f4:	e007      	b.n	8000906 <get_pin+0xba>
 80008f6:	2310      	movs	r3, #16
 80008f8:	e005      	b.n	8000906 <get_pin+0xba>
 80008fa:	2314      	movs	r3, #20
 80008fc:	e003      	b.n	8000906 <get_pin+0xba>
 80008fe:	2318      	movs	r3, #24
 8000900:	e001      	b.n	8000906 <get_pin+0xba>
 8000902:	231c      	movs	r3, #28
 8000904:	e7ff      	b.n	8000906 <get_pin+0xba>
 8000906:	4618      	mov	r0, r3
 8000908:	370c      	adds	r7, #12
 800090a:	46bd      	mov	sp, r7
 800090c:	bc80      	pop	{r7}
 800090e:	4770      	bx	lr

08000910 <GPIOx_init>:
 8000910:	b590      	push	{r4, r7, lr}
 8000912:	b085      	sub	sp, #20
 8000914:	af00      	add	r7, sp, #0
 8000916:	6078      	str	r0, [r7, #4]
 8000918:	6039      	str	r1, [r7, #0]
 800091a:	2300      	movs	r3, #0
 800091c:	60bb      	str	r3, [r7, #8]
 800091e:	683b      	ldr	r3, [r7, #0]
 8000920:	881b      	ldrh	r3, [r3, #0]
 8000922:	f5b3 7f80 	cmp.w	r3, #256	; 0x100
 8000926:	d902      	bls.n	800092e <GPIOx_init+0x1e>
 8000928:	687b      	ldr	r3, [r7, #4]
 800092a:	3304      	adds	r3, #4
 800092c:	e000      	b.n	8000930 <GPIOx_init+0x20>
 800092e:	687b      	ldr	r3, [r7, #4]
 8000930:	60bb      	str	r3, [r7, #8]
 8000932:	2300      	movs	r3, #0
 8000934:	73fb      	strb	r3, [r7, #15]
 8000936:	683b      	ldr	r3, [r7, #0]
 8000938:	881b      	ldrh	r3, [r3, #0]
 800093a:	4618      	mov	r0, r3
 800093c:	f7ff ff86 	bl	800084c <get_pin>
 8000940:	4603      	mov	r3, r0
 8000942:	461a      	mov	r2, r3
 8000944:	230f      	movs	r3, #15
 8000946:	4093      	lsls	r3, r2
 8000948:	43da      	mvns	r2, r3
 800094a:	68bb      	ldr	r3, [r7, #8]
 800094c:	681b      	ldr	r3, [r3, #0]
 800094e:	401a      	ands	r2, r3
 8000950:	68bb      	ldr	r3, [r7, #8]
 8000952:	601a      	str	r2, [r3, #0]
 8000954:	683b      	ldr	r3, [r7, #0]
 8000956:	789b      	ldrb	r3, [r3, #2]
 8000958:	2b04      	cmp	r3, #4
 800095a:	d00b      	beq.n	8000974 <GPIOx_init+0x64>
 800095c:	683b      	ldr	r3, [r7, #0]
 800095e:	789b      	ldrb	r3, [r3, #2]
 8000960:	2b05      	cmp	r3, #5
 8000962:	d007      	beq.n	8000974 <GPIOx_init+0x64>
 8000964:	683b      	ldr	r3, [r7, #0]
 8000966:	789b      	ldrb	r3, [r3, #2]
 8000968:	2b06      	cmp	r3, #6
 800096a:	d003      	beq.n	8000974 <GPIOx_init+0x64>
 800096c:	683b      	ldr	r3, [r7, #0]
 800096e:	789b      	ldrb	r3, [r3, #2]
 8000970:	2b07      	cmp	r3, #7
 8000972:	d10e      	bne.n	8000992 <GPIOx_init+0x82>
 8000974:	683b      	ldr	r3, [r7, #0]
 8000976:	789b      	ldrb	r3, [r3, #2]
 8000978:	3b04      	subs	r3, #4
 800097a:	009b      	lsls	r3, r3, #2
 800097c:	b25a      	sxtb	r2, r3
 800097e:	683b      	ldr	r3, [r7, #0]
 8000980:	78db      	ldrb	r3, [r3, #3]
 8000982:	b25b      	sxtb	r3, r3
 8000984:	f003 030f 	and.w	r3, r3, #15
 8000988:	b25b      	sxtb	r3, r3
 800098a:	4313      	orrs	r3, r2
 800098c:	b25b      	sxtb	r3, r3
 800098e:	73fb      	strb	r3, [r7, #15]
 8000990:	e02a      	b.n	80009e8 <GPIOx_init+0xd8>
 8000992:	683b      	ldr	r3, [r7, #0]
 8000994:	789b      	ldrb	r3, [r3, #2]
 8000996:	2b00      	cmp	r3, #0
 8000998:	d003      	beq.n	80009a2 <GPIOx_init+0x92>
 800099a:	683b      	ldr	r3, [r7, #0]
 800099c:	789b      	ldrb	r3, [r3, #2]
 800099e:	2b01      	cmp	r3, #1
 80009a0:	d107      	bne.n	80009b2 <GPIOx_init+0xa2>
 80009a2:	683b      	ldr	r3, [r7, #0]
 80009a4:	789b      	ldrb	r3, [r3, #2]
 80009a6:	009b      	lsls	r3, r3, #2
 80009a8:	b2db      	uxtb	r3, r3
 80009aa:	f003 030f 	and.w	r3, r3, #15
 80009ae:	73fb      	strb	r3, [r7, #15]
 80009b0:	e01a      	b.n	80009e8 <GPIOx_init+0xd8>
 80009b2:	683b      	ldr	r3, [r7, #0]
 80009b4:	789b      	ldrb	r3, [r3, #2]
 80009b6:	2b08      	cmp	r3, #8
 80009b8:	d102      	bne.n	80009c0 <GPIOx_init+0xb0>
 80009ba:	2304      	movs	r3, #4
 80009bc:	73fb      	strb	r3, [r7, #15]
 80009be:	e013      	b.n	80009e8 <GPIOx_init+0xd8>
 80009c0:	2308      	movs	r3, #8
 80009c2:	73fb      	strb	r3, [r7, #15]
 80009c4:	683b      	ldr	r3, [r7, #0]
 80009c6:	789b      	ldrb	r3, [r3, #2]
 80009c8:	2b02      	cmp	r3, #2
 80009ca:	d105      	bne.n	80009d8 <GPIOx_init+0xc8>
 80009cc:	683b      	ldr	r3, [r7, #0]
 80009ce:	881b      	ldrh	r3, [r3, #0]
 80009d0:	461a      	mov	r2, r3
 80009d2:	687b      	ldr	r3, [r7, #4]
 80009d4:	60da      	str	r2, [r3, #12]
 80009d6:	e007      	b.n	80009e8 <GPIOx_init+0xd8>
 80009d8:	687b      	ldr	r3, [r7, #4]
 80009da:	68db      	ldr	r3, [r3, #12]
 80009dc:	683a      	ldr	r2, [r7, #0]
 80009de:	8812      	ldrh	r2, [r2, #0]
 80009e0:	43d2      	mvns	r2, r2
 80009e2:	401a      	ands	r2, r3
 80009e4:	687b      	ldr	r3, [r7, #4]
 80009e6:	60da      	str	r2, [r3, #12]
 80009e8:	7bfc      	ldrb	r4, [r7, #15]
 80009ea:	683b      	ldr	r3, [r7, #0]
 80009ec:	881b      	ldrh	r3, [r3, #0]
 80009ee:	4618      	mov	r0, r3
 80009f0:	f7ff ff2c 	bl	800084c <get_pin>
 80009f4:	4603      	mov	r3, r0
 80009f6:	fa04 f203 	lsl.w	r2, r4, r3
 80009fa:	68bb      	ldr	r3, [r7, #8]
 80009fc:	681b      	ldr	r3, [r3, #0]
 80009fe:	431a      	orrs	r2, r3
 8000a00:	68bb      	ldr	r3, [r7, #8]
 8000a02:	601a      	str	r2, [r3, #0]
 8000a04:	bf00      	nop
 8000a06:	3714      	adds	r7, #20
 8000a08:	46bd      	mov	sp, r7
 8000a0a:	bd90      	pop	{r4, r7, pc}

08000a0c <GPIOx_TOGGELE_PIN>:
 8000a0c:	b480      	push	{r7}
 8000a0e:	b083      	sub	sp, #12
 8000a10:	af00      	add	r7, sp, #0
 8000a12:	6078      	str	r0, [r7, #4]
 8000a14:	460b      	mov	r3, r1
 8000a16:	807b      	strh	r3, [r7, #2]
 8000a18:	687b      	ldr	r3, [r7, #4]
 8000a1a:	68da      	ldr	r2, [r3, #12]
 8000a1c:	887b      	ldrh	r3, [r7, #2]
 8000a1e:	405a      	eors	r2, r3
 8000a20:	687b      	ldr	r3, [r7, #4]
 8000a22:	60da      	str	r2, [r3, #12]
 8000a24:	bf00      	nop
 8000a26:	370c      	adds	r7, #12
 8000a28:	46bd      	mov	sp, r7
 8000a2a:	bc80      	pop	{r7}
 8000a2c:	4770      	bx	lr
	...

08000a30 <SPI1_IRQHandler>:
 8000a30:	b580      	push	{r7, lr}
 8000a32:	af00      	add	r7, sp, #0
 8000a34:	4b02      	ldr	r3, [pc, #8]	; (8000a40 <SPI1_IRQHandler+0x10>)
 8000a36:	681b      	ldr	r3, [r3, #0]
 8000a38:	68db      	ldr	r3, [r3, #12]
 8000a3a:	4798      	blx	r3
 8000a3c:	bf00      	nop
 8000a3e:	bd80      	pop	{r7, pc}
 8000a40:	2000001c 	andcs	r0, r0, ip, lsl r0

08000a44 <SPI2_IRQHandler>:
 8000a44:	b580      	push	{r7, lr}
 8000a46:	af00      	add	r7, sp, #0
 8000a48:	4b02      	ldr	r3, [pc, #8]	; (8000a54 <SPI2_IRQHandler+0x10>)
 8000a4a:	681b      	ldr	r3, [r3, #0]
 8000a4c:	68db      	ldr	r3, [r3, #12]
 8000a4e:	4798      	blx	r3
 8000a50:	bf00      	nop
 8000a52:	bd80      	pop	{r7, pc}
 8000a54:	2000001c 	andcs	r0, r0, ip, lsl r0

08000a58 <SPI3_IRQHandler>:
 8000a58:	b580      	push	{r7, lr}
 8000a5a:	af00      	add	r7, sp, #0
 8000a5c:	4b02      	ldr	r3, [pc, #8]	; (8000a68 <SPI3_IRQHandler+0x10>)
 8000a5e:	681b      	ldr	r3, [r3, #0]
 8000a60:	68db      	ldr	r3, [r3, #12]
 8000a62:	4798      	blx	r3
 8000a64:	bf00      	nop
 8000a66:	bd80      	pop	{r7, pc}
 8000a68:	2000001c 	andcs	r0, r0, ip, lsl r0

08000a6c <USART1_IRQHandler>:
 8000a6c:	b580      	push	{r7, lr}
 8000a6e:	af00      	add	r7, sp, #0
 8000a70:	4b02      	ldr	r3, [pc, #8]	; (8000a7c <USART1_IRQHandler+0x10>)
 8000a72:	681b      	ldr	r3, [r3, #0]
 8000a74:	691b      	ldr	r3, [r3, #16]
 8000a76:	4798      	blx	r3
 8000a78:	bf00      	nop
 8000a7a:	bd80      	pop	{r7, pc}
 8000a7c:	20000020 	andcs	r0, r0, r0, lsr #32

08000a80 <USART2_IRQHandler>:
 8000a80:	b580      	push	{r7, lr}
 8000a82:	af00      	add	r7, sp, #0
 8000a84:	4b02      	ldr	r3, [pc, #8]	; (8000a90 <USART2_IRQHandler+0x10>)
 8000a86:	681b      	ldr	r3, [r3, #0]
 8000a88:	691b      	ldr	r3, [r3, #16]
 8000a8a:	4798      	blx	r3
 8000a8c:	bf00      	nop
 8000a8e:	bd80      	pop	{r7, pc}
 8000a90:	20000020 	andcs	r0, r0, r0, lsr #32

08000a94 <USART3_IRQHandler>:
 8000a94:	b580      	push	{r7, lr}
 8000a96:	af00      	add	r7, sp, #0
 8000a98:	4b02      	ldr	r3, [pc, #8]	; (8000aa4 <USART3_IRQHandler+0x10>)
 8000a9a:	681b      	ldr	r3, [r3, #0]
 8000a9c:	691b      	ldr	r3, [r3, #16]
 8000a9e:	4798      	blx	r3
 8000aa0:	bf00      	nop
 8000aa2:	bd80      	pop	{r7, pc}
 8000aa4:	20000020 	andcs	r0, r0, r0, lsr #32

08000aa8 <__libc_init_array>:
 8000aa8:	b570      	push	{r4, r5, r6, lr}
 8000aaa:	2500      	movs	r5, #0
 8000aac:	4e0c      	ldr	r6, [pc, #48]	; (8000ae0 <__libc_init_array+0x38>)
 8000aae:	4c0d      	ldr	r4, [pc, #52]	; (8000ae4 <__libc_init_array+0x3c>)
 8000ab0:	1ba4      	subs	r4, r4, r6
 8000ab2:	10a4      	asrs	r4, r4, #2
 8000ab4:	42a5      	cmp	r5, r4
 8000ab6:	d109      	bne.n	8000acc <__libc_init_array+0x24>
 8000ab8:	f000 f81a 	bl	8000af0 <_init>
 8000abc:	2500      	movs	r5, #0
 8000abe:	4e0a      	ldr	r6, [pc, #40]	; (8000ae8 <__libc_init_array+0x40>)
 8000ac0:	4c0a      	ldr	r4, [pc, #40]	; (8000aec <__libc_init_array+0x44>)
 8000ac2:	1ba4      	subs	r4, r4, r6
 8000ac4:	10a4      	asrs	r4, r4, #2
 8000ac6:	42a5      	cmp	r5, r4
 8000ac8:	d105      	bne.n	8000ad6 <__libc_init_array+0x2e>
 8000aca:	bd70      	pop	{r4, r5, r6, pc}
 8000acc:	f856 3025 	ldr.w	r3, [r6, r5, lsl #2]
 8000ad0:	4798      	blx	r3
 8000ad2:	3501      	adds	r5, #1
 8000ad4:	e7ee      	b.n	8000ab4 <__libc_init_array+0xc>
 8000ad6:	f856 3025 	ldr.w	r3, [r6, r5, lsl #2]
 8000ada:	4798      	blx	r3
 8000adc:	3501      	adds	r5, #1
 8000ade:	e7f2      	b.n	8000ac6 <__libc_init_array+0x1e>
 8000ae0:	08000b14 	stmdaeq	r0, {r2, r4, r8, r9, fp}
 8000ae4:	08000b14 	stmdaeq	r0, {r2, r4, r8, r9, fp}
 8000ae8:	08000b14 	stmdaeq	r0, {r2, r4, r8, r9, fp}
 8000aec:	08000b18 	stmdaeq	r0, {r3, r4, r8, r9, fp}

08000af0 <_init>:
 8000af0:	b5f8      	push	{r3, r4, r5, r6, r7, lr}
 8000af2:	bf00      	nop
 8000af4:	bcf8      	pop	{r3, r4, r5, r6, r7}
 8000af6:	bc08      	pop	{r3}
 8000af8:	469e      	mov	lr, r3
 8000afa:	4770      	bx	lr

08000afc <_fini>:
 8000afc:	b5f8      	push	{r3, r4, r5, r6, r7, lr}
 8000afe:	bf00      	nop
 8000b00:	bcf8      	pop	{r3, r4, r5, r6, r7}
 8000b02:	bc08      	pop	{r3}
 8000b04:	469e      	mov	lr, r3
 8000b06:	4770      	bx	lr
