
Drivers.axf:     file format elf32-littlearm


Disassembly of section .isr_vector:

08000000 <g_pfnVectors>:
 8000000:	20002800 	andcs	r2, r0, r0, lsl #16
 8000004:	080003c1 	stmdaeq	r0, {r0, r6, r7, r8, r9}
 8000008:	080002bd 	stmdaeq	r0, {r0, r2, r3, r4, r5, r7, r9}
 800000c:	080002c9 	stmdaeq	r0, {r0, r3, r6, r7, r9}
 8000010:	080002d5 	stmdaeq	r0, {r0, r2, r4, r6, r7, r9}
 8000014:	080002e1 	stmdaeq	r0, {r0, r5, r6, r7, r9}
 8000018:	08000411 	stmdaeq	r0, {r0, r4, sl}
	...
 800002c:	08000207 	stmdaeq	r0, {r0, r1, r2, r9}
 8000030:	08000411 	stmdaeq	r0, {r0, r4, sl}
 8000034:	00000000 	andeq	r0, r0, r0
 8000038:	08000411 	stmdaeq	r0, {r0, r4, sl}
 800003c:	08000411 	stmdaeq	r0, {r0, r4, sl}
 8000040:	08000411 	stmdaeq	r0, {r0, r4, sl}
 8000044:	08000411 	stmdaeq	r0, {r0, r4, sl}
 8000048:	08000411 	stmdaeq	r0, {r0, r4, sl}
 800004c:	08000411 	stmdaeq	r0, {r0, r4, sl}
 8000050:	08000411 	stmdaeq	r0, {r0, r4, sl}
 8000054:	08000411 	stmdaeq	r0, {r0, r4, sl}
 8000058:	080007a5 	stmdaeq	r0, {r0, r2, r5, r7, r8, r9, sl}
 800005c:	080007c1 	stmdaeq	r0, {r0, r6, r7, r8, r9, sl}
 8000060:	080007dd 	stmdaeq	r0, {r0, r2, r3, r4, r6, r7, r8, r9, sl}
 8000064:	080007f9 	stmdaeq	r0, {r0, r3, r4, r5, r6, r7, r8, r9, sl}
 8000068:	08000815 	stmdaeq	r0, {r0, r2, r4, fp}
 800006c:	08000411 	stmdaeq	r0, {r0, r4, sl}
 8000070:	08000411 	stmdaeq	r0, {r0, r4, sl}
 8000074:	08000411 	stmdaeq	r0, {r0, r4, sl}
 8000078:	08000411 	stmdaeq	r0, {r0, r4, sl}
 800007c:	08000411 	stmdaeq	r0, {r0, r4, sl}
 8000080:	08000411 	stmdaeq	r0, {r0, r4, sl}
 8000084:	08000411 	stmdaeq	r0, {r0, r4, sl}
 8000088:	08000411 	stmdaeq	r0, {r0, r4, sl}
 800008c:	08000411 	stmdaeq	r0, {r0, r4, sl}
 8000090:	08000411 	stmdaeq	r0, {r0, r4, sl}
 8000094:	08000411 	stmdaeq	r0, {r0, r4, sl}
 8000098:	08000411 	stmdaeq	r0, {r0, r4, sl}
 800009c:	08000831 	stmdaeq	r0, {r0, r4, r5, fp}
 80000a0:	08000411 	stmdaeq	r0, {r0, r4, sl}
 80000a4:	08000411 	stmdaeq	r0, {r0, r4, sl}
 80000a8:	08000411 	stmdaeq	r0, {r0, r4, sl}
 80000ac:	08000411 	stmdaeq	r0, {r0, r4, sl}
 80000b0:	08000411 	stmdaeq	r0, {r0, r4, sl}
 80000b4:	08000411 	stmdaeq	r0, {r0, r4, sl}
 80000b8:	08000411 	stmdaeq	r0, {r0, r4, sl}
 80000bc:	08000411 	stmdaeq	r0, {r0, r4, sl}
 80000c0:	08000411 	stmdaeq	r0, {r0, r4, sl}
 80000c4:	08000411 	stmdaeq	r0, {r0, r4, sl}
 80000c8:	08000411 	stmdaeq	r0, {r0, r4, sl}
 80000cc:	08000b41 	stmdaeq	r0, {r0, r6, r8, r9, fp}
 80000d0:	08000b55 	stmdaeq	r0, {r0, r2, r4, r6, r8, r9, fp}
 80000d4:	08000b7d 	stmdaeq	r0, {r0, r2, r3, r4, r5, r6, r8, r9, fp}
 80000d8:	08000b91 	stmdaeq	r0, {r0, r4, r7, r8, r9, fp}
 80000dc:	08000ba5 	stmdaeq	r0, {r0, r2, r5, r7, r8, r9, fp}
 80000e0:	080008bd 	stmdaeq	r0, {r0, r2, r3, r4, r5, r7, fp}
 80000e4:	08000411 	stmdaeq	r0, {r0, r4, sl}
 80000e8:	00000000 	andeq	r0, r0, r0
 80000ec:	08000411 	stmdaeq	r0, {r0, r4, sl}
 80000f0:	08000411 	stmdaeq	r0, {r0, r4, sl}
 80000f4:	08000411 	stmdaeq	r0, {r0, r4, sl}
 80000f8:	08000411 	stmdaeq	r0, {r0, r4, sl}
 80000fc:	08000411 	stmdaeq	r0, {r0, r4, sl}
 8000100:	08000411 	stmdaeq	r0, {r0, r4, sl}
 8000104:	08000411 	stmdaeq	r0, {r0, r4, sl}
 8000108:	08000411 	stmdaeq	r0, {r0, r4, sl}
 800010c:	08000b69 	stmdaeq	r0, {r0, r3, r5, r6, r8, r9, fp}
 8000110:	08000411 	stmdaeq	r0, {r0, r4, sl}
 8000114:	08000411 	stmdaeq	r0, {r0, r4, sl}
 8000118:	08000411 	stmdaeq	r0, {r0, r4, sl}
 800011c:	08000411 	stmdaeq	r0, {r0, r4, sl}
 8000120:	08000411 	stmdaeq	r0, {r0, r4, sl}
 8000124:	08000411 	stmdaeq	r0, {r0, r4, sl}
 8000128:	08000411 	stmdaeq	r0, {r0, r4, sl}
 800012c:	08000411 	stmdaeq	r0, {r0, r4, sl}

Disassembly of section .text:

08000130 <__do_global_dtors_aux>:
 8000130:	b510      	push	{r4, lr}
 8000132:	4c05      	ldr	r4, [pc, #20]	; (8000148 <__do_global_dtors_aux+0x18>)
 8000134:	7823      	ldrb	r3, [r4, #0]
 8000136:	b933      	cbnz	r3, 8000146 <__do_global_dtors_aux+0x16>
 8000138:	4b04      	ldr	r3, [pc, #16]	; (800014c <__do_global_dtors_aux+0x1c>)
 800013a:	b113      	cbz	r3, 8000142 <__do_global_dtors_aux+0x12>
 800013c:	4804      	ldr	r0, [pc, #16]	; (8000150 <__do_global_dtors_aux+0x20>)
 800013e:	f3af 8000 	nop.w
 8000142:	2301      	movs	r3, #1
 8000144:	7023      	strb	r3, [r4, #0]
 8000146:	bd10      	pop	{r4, pc}
 8000148:	20000000 	andcs	r0, r0, r0
 800014c:	00000000 	andeq	r0, r0, r0
 8000150:	08000c00 	stmdaeq	r0, {sl, fp}

08000154 <frame_dummy>:
 8000154:	b508      	push	{r3, lr}
 8000156:	4b03      	ldr	r3, [pc, #12]	; (8000164 <frame_dummy+0x10>)
 8000158:	b11b      	cbz	r3, 8000162 <frame_dummy+0xe>
 800015a:	4903      	ldr	r1, [pc, #12]	; (8000168 <frame_dummy+0x14>)
 800015c:	4803      	ldr	r0, [pc, #12]	; (800016c <frame_dummy+0x18>)
 800015e:	f3af 8000 	nop.w
 8000162:	bd08      	pop	{r3, pc}
 8000164:	00000000 	andeq	r0, r0, r0
 8000168:	20000004 	andcs	r0, r0, r4
 800016c:	08000c00 	stmdaeq	r0, {sl, fp}

08000170 <OS_SVC_Services>:
 8000170:	b480      	push	{r7}
 8000172:	b087      	sub	sp, #28
 8000174:	af00      	add	r7, sp, #0
 8000176:	6078      	str	r0, [r7, #4]
 8000178:	687b      	ldr	r3, [r7, #4]
 800017a:	3318      	adds	r3, #24
 800017c:	681b      	ldr	r3, [r3, #0]
 800017e:	3b02      	subs	r3, #2
 8000180:	781b      	ldrb	r3, [r3, #0]
 8000182:	75fb      	strb	r3, [r7, #23]
 8000184:	687b      	ldr	r3, [r7, #4]
 8000186:	681b      	ldr	r3, [r3, #0]
 8000188:	613b      	str	r3, [r7, #16]
 800018a:	687b      	ldr	r3, [r7, #4]
 800018c:	685b      	ldr	r3, [r3, #4]
 800018e:	60fb      	str	r3, [r7, #12]
 8000190:	7dfb      	ldrb	r3, [r7, #23]
 8000192:	2b02      	cmp	r3, #2
 8000194:	d00a      	beq.n	80001ac <OS_SVC_Services+0x3c>
 8000196:	2b03      	cmp	r3, #3
 8000198:	d00e      	beq.n	80001b8 <OS_SVC_Services+0x48>
 800019a:	2b01      	cmp	r3, #1
 800019c:	d000      	beq.n	80001a0 <OS_SVC_Services+0x30>
 800019e:	e012      	b.n	80001c6 <OS_SVC_Services+0x56>
 80001a0:	693a      	ldr	r2, [r7, #16]
 80001a2:	68fb      	ldr	r3, [r7, #12]
 80001a4:	441a      	add	r2, r3
 80001a6:	687b      	ldr	r3, [r7, #4]
 80001a8:	601a      	str	r2, [r3, #0]
 80001aa:	e00c      	b.n	80001c6 <OS_SVC_Services+0x56>
 80001ac:	693a      	ldr	r2, [r7, #16]
 80001ae:	68fb      	ldr	r3, [r7, #12]
 80001b0:	1ad2      	subs	r2, r2, r3
 80001b2:	687b      	ldr	r3, [r7, #4]
 80001b4:	601a      	str	r2, [r3, #0]
 80001b6:	e006      	b.n	80001c6 <OS_SVC_Services+0x56>
 80001b8:	693b      	ldr	r3, [r7, #16]
 80001ba:	68fa      	ldr	r2, [r7, #12]
 80001bc:	fb02 f203 	mul.w	r2, r2, r3
 80001c0:	687b      	ldr	r3, [r7, #4]
 80001c2:	601a      	str	r2, [r3, #0]
 80001c4:	bf00      	nop
 80001c6:	bf00      	nop
 80001c8:	371c      	adds	r7, #28
 80001ca:	46bd      	mov	sp, r7
 80001cc:	bc80      	pop	{r7}
 80001ce:	4770      	bx	lr

080001d0 <OS_SVC_Set>:
 80001d0:	b480      	push	{r7}
 80001d2:	b087      	sub	sp, #28
 80001d4:	af00      	add	r7, sp, #0
 80001d6:	60f8      	str	r0, [r7, #12]
 80001d8:	60b9      	str	r1, [r7, #8]
 80001da:	607a      	str	r2, [r7, #4]
 80001dc:	687b      	ldr	r3, [r7, #4]
 80001de:	2b02      	cmp	r3, #2
 80001e0:	d005      	beq.n	80001ee <OS_SVC_Set+0x1e>
 80001e2:	2b03      	cmp	r3, #3
 80001e4:	d005      	beq.n	80001f2 <OS_SVC_Set+0x22>
 80001e6:	2b01      	cmp	r3, #1
 80001e8:	d105      	bne.n	80001f6 <OS_SVC_Set+0x26>
 80001ea:	df01      	svc	1
 80001ec:	e003      	b.n	80001f6 <OS_SVC_Set+0x26>
 80001ee:	df02      	svc	2
 80001f0:	e001      	b.n	80001f6 <OS_SVC_Set+0x26>
 80001f2:	df03      	svc	3
 80001f4:	bf00      	nop
 80001f6:	4603      	mov	r3, r0
 80001f8:	617b      	str	r3, [r7, #20]
 80001fa:	697b      	ldr	r3, [r7, #20]
 80001fc:	4618      	mov	r0, r3
 80001fe:	371c      	adds	r7, #28
 8000200:	46bd      	mov	sp, r7
 8000202:	bc80      	pop	{r7}
 8000204:	4770      	bx	lr

08000206 <SVC_Handler>:
 8000206:	f01e 0f04 	tst.w	lr, #4
 800020a:	bf0c      	ite	eq
 800020c:	f3ef 8008 	mrseq	r0, MSP
 8000210:	f3ef 8009 	mrsne	r0, PSP
 8000214:	f7ff bfac 	b.w	8000170 <OS_SVC_Services>
 8000218:	bf00      	nop
	...

0800021c <Clock_Init>:
 800021c:	b480      	push	{r7}
 800021e:	af00      	add	r7, sp, #0
 8000220:	4b0a      	ldr	r3, [pc, #40]	; (800024c <Clock_Init+0x30>)
 8000222:	699b      	ldr	r3, [r3, #24]
 8000224:	4a09      	ldr	r2, [pc, #36]	; (800024c <Clock_Init+0x30>)
 8000226:	f043 0301 	orr.w	r3, r3, #1
 800022a:	6193      	str	r3, [r2, #24]
 800022c:	4b07      	ldr	r3, [pc, #28]	; (800024c <Clock_Init+0x30>)
 800022e:	699b      	ldr	r3, [r3, #24]
 8000230:	4a06      	ldr	r2, [pc, #24]	; (800024c <Clock_Init+0x30>)
 8000232:	f043 0304 	orr.w	r3, r3, #4
 8000236:	6193      	str	r3, [r2, #24]
 8000238:	4b04      	ldr	r3, [pc, #16]	; (800024c <Clock_Init+0x30>)
 800023a:	699b      	ldr	r3, [r3, #24]
 800023c:	4a03      	ldr	r2, [pc, #12]	; (800024c <Clock_Init+0x30>)
 800023e:	f043 0308 	orr.w	r3, r3, #8
 8000242:	6193      	str	r3, [r2, #24]
 8000244:	bf00      	nop
 8000246:	46bd      	mov	sp, r7
 8000248:	bc80      	pop	{r7}
 800024a:	4770      	bx	lr
 800024c:	40021000 	andmi	r1, r2, r0

08000250 <GPIO_Init>:
 8000250:	b580      	push	{r7, lr}
 8000252:	b082      	sub	sp, #8
 8000254:	af00      	add	r7, sp, #0
 8000256:	2302      	movs	r3, #2
 8000258:	80bb      	strh	r3, [r7, #4]
 800025a:	2301      	movs	r3, #1
 800025c:	71bb      	strb	r3, [r7, #6]
 800025e:	1d3b      	adds	r3, r7, #4
 8000260:	4619      	mov	r1, r3
 8000262:	4814      	ldr	r0, [pc, #80]	; (80002b4 <GPIO_Init+0x64>)
 8000264:	f000 fbee 	bl	8000a44 <GPIOx_init>
 8000268:	f44f 5300 	mov.w	r3, #8192	; 0x2000
 800026c:	80bb      	strh	r3, [r7, #4]
 800026e:	2301      	movs	r3, #1
 8000270:	71bb      	strb	r3, [r7, #6]
 8000272:	1d3b      	adds	r3, r7, #4
 8000274:	4619      	mov	r1, r3
 8000276:	480f      	ldr	r0, [pc, #60]	; (80002b4 <GPIO_Init+0x64>)
 8000278:	f000 fbe4 	bl	8000a44 <GPIOx_init>
 800027c:	2302      	movs	r3, #2
 800027e:	80bb      	strh	r3, [r7, #4]
 8000280:	2304      	movs	r3, #4
 8000282:	71bb      	strb	r3, [r7, #6]
 8000284:	2301      	movs	r3, #1
 8000286:	71fb      	strb	r3, [r7, #7]
 8000288:	1d3b      	adds	r3, r7, #4
 800028a:	4619      	mov	r1, r3
 800028c:	480a      	ldr	r0, [pc, #40]	; (80002b8 <GPIO_Init+0x68>)
 800028e:	f000 fbd9 	bl	8000a44 <GPIOx_init>
 8000292:	f44f 5300 	mov.w	r3, #8192	; 0x2000
 8000296:	80bb      	strh	r3, [r7, #4]
 8000298:	2304      	movs	r3, #4
 800029a:	71bb      	strb	r3, [r7, #6]
 800029c:	2301      	movs	r3, #1
 800029e:	71fb      	strb	r3, [r7, #7]
 80002a0:	1d3b      	adds	r3, r7, #4
 80002a2:	4619      	mov	r1, r3
 80002a4:	4804      	ldr	r0, [pc, #16]	; (80002b8 <GPIO_Init+0x68>)
 80002a6:	f000 fbcd 	bl	8000a44 <GPIOx_init>
 80002aa:	bf00      	nop
 80002ac:	3708      	adds	r7, #8
 80002ae:	46bd      	mov	sp, r7
 80002b0:	bd80      	pop	{r7, pc}
 80002b2:	bf00      	nop
 80002b4:	40010800 	andmi	r0, r1, r0, lsl #16
 80002b8:	40010c00 	andmi	r0, r1, r0, lsl #24

080002bc <NMI_Handler>:
 80002bc:	b480      	push	{r7}
 80002be:	af00      	add	r7, sp, #0
 80002c0:	bf00      	nop
 80002c2:	46bd      	mov	sp, r7
 80002c4:	bc80      	pop	{r7}
 80002c6:	4770      	bx	lr

080002c8 <HardFault_Handler>:
 80002c8:	b480      	push	{r7}
 80002ca:	af00      	add	r7, sp, #0
 80002cc:	bf00      	nop
 80002ce:	46bd      	mov	sp, r7
 80002d0:	bc80      	pop	{r7}
 80002d2:	4770      	bx	lr

080002d4 <MemManage_Handler>:
 80002d4:	b480      	push	{r7}
 80002d6:	af00      	add	r7, sp, #0
 80002d8:	bf00      	nop
 80002da:	46bd      	mov	sp, r7
 80002dc:	bc80      	pop	{r7}
 80002de:	4770      	bx	lr

080002e0 <BusFault_Handler>:
 80002e0:	b480      	push	{r7}
 80002e2:	af00      	add	r7, sp, #0
 80002e4:	bf00      	nop
 80002e6:	46bd      	mov	sp, r7
 80002e8:	bc80      	pop	{r7}
 80002ea:	4770      	bx	lr

080002ec <INT_ACTION>:
 80002ec:	b480      	push	{r7}
 80002ee:	af00      	add	r7, sp, #0
 80002f0:	4b0c      	ldr	r3, [pc, #48]	; (8000324 <INT_ACTION+0x38>)
 80002f2:	781b      	ldrb	r3, [r3, #0]
 80002f4:	2b00      	cmp	r3, #0
 80002f6:	d106      	bne.n	8000306 <INT_ACTION+0x1a>
 80002f8:	4b0b      	ldr	r3, [pc, #44]	; (8000328 <INT_ACTION+0x3c>)
 80002fa:	2201      	movs	r2, #1
 80002fc:	701a      	strb	r2, [r3, #0]
 80002fe:	4b09      	ldr	r3, [pc, #36]	; (8000324 <INT_ACTION+0x38>)
 8000300:	2201      	movs	r2, #1
 8000302:	701a      	strb	r2, [r3, #0]
 8000304:	e009      	b.n	800031a <INT_ACTION+0x2e>
 8000306:	4b07      	ldr	r3, [pc, #28]	; (8000324 <INT_ACTION+0x38>)
 8000308:	781b      	ldrb	r3, [r3, #0]
 800030a:	2b01      	cmp	r3, #1
 800030c:	d105      	bne.n	800031a <INT_ACTION+0x2e>
 800030e:	4b07      	ldr	r3, [pc, #28]	; (800032c <INT_ACTION+0x40>)
 8000310:	2201      	movs	r2, #1
 8000312:	701a      	strb	r2, [r3, #0]
 8000314:	4b03      	ldr	r3, [pc, #12]	; (8000324 <INT_ACTION+0x38>)
 8000316:	2200      	movs	r2, #0
 8000318:	701a      	strb	r2, [r3, #0]
 800031a:	bf00      	nop
 800031c:	46bd      	mov	sp, r7
 800031e:	bc80      	pop	{r7}
 8000320:	4770      	bx	lr
 8000322:	bf00      	nop
 8000324:	2000001c 	andcs	r0, r0, ip, lsl r0
 8000328:	2000001d 	andcs	r0, r0, sp, lsl r0
 800032c:	2000001e 	andcs	r0, r0, lr, lsl r0

08000330 <main>:
 8000330:	b580      	push	{r7, lr}
 8000332:	b082      	sub	sp, #8
 8000334:	af00      	add	r7, sp, #0
 8000336:	f7ff ff71 	bl	800021c <Clock_Init>
 800033a:	f7ff ff89 	bl	8000250 <GPIO_Init>
 800033e:	bf00      	nop
 8000340:	bf00      	nop
 8000342:	bf00      	nop
 8000344:	2305      	movs	r3, #5
 8000346:	70bb      	strb	r3, [r7, #2]
 8000348:	2304      	movs	r3, #4
 800034a:	707b      	strb	r3, [r7, #1]
 800034c:	f04f 03ff 	mov.w	r3, #255	; 0xff
 8000350:	70fb      	strb	r3, [r7, #3]
 8000352:	78fb      	ldrb	r3, [r7, #3]
 8000354:	b2db      	uxtb	r3, r3
 8000356:	4618      	mov	r0, r3
 8000358:	78bb      	ldrb	r3, [r7, #2]
 800035a:	b2d9      	uxtb	r1, r3
 800035c:	787b      	ldrb	r3, [r7, #1]
 800035e:	b2d8      	uxtb	r0, r3
 8000360:	4401      	add	r1, r0
 8000362:	7039      	strb	r1, [r7, #0]
 8000364:	f3ef 8314 	mrs	r3, CONTROL
 8000368:	70fb      	strb	r3, [r7, #3]
 800036a:	4b12      	ldr	r3, [pc, #72]	; (80003b4 <main+0x84>)
 800036c:	4a12      	ldr	r2, [pc, #72]	; (80003b8 <main+0x88>)
 800036e:	ca07      	ldmia	r2, {r0, r1, r2}
 8000370:	e883 0007 	stmia.w	r3, {r0, r1, r2}
 8000374:	4b0f      	ldr	r3, [pc, #60]	; (80003b4 <main+0x84>)
 8000376:	2200      	movs	r2, #0
 8000378:	731a      	strb	r2, [r3, #12]
 800037a:	4b0e      	ldr	r3, [pc, #56]	; (80003b4 <main+0x84>)
 800037c:	2201      	movs	r2, #1
 800037e:	735a      	strb	r2, [r3, #13]
 8000380:	4b0c      	ldr	r3, [pc, #48]	; (80003b4 <main+0x84>)
 8000382:	4a0e      	ldr	r2, [pc, #56]	; (80003bc <main+0x8c>)
 8000384:	611a      	str	r2, [r3, #16]
 8000386:	480b      	ldr	r0, [pc, #44]	; (80003b4 <main+0x84>)
 8000388:	f000 fa00 	bl	800078c <MCAL_EXTI_GPIO_INIT>
 800038c:	2201      	movs	r2, #1
 800038e:	2102      	movs	r1, #2
 8000390:	2005      	movs	r0, #5
 8000392:	f7ff ff1d 	bl	80001d0 <OS_SVC_Set>
 8000396:	6078      	str	r0, [r7, #4]
 8000398:	2202      	movs	r2, #2
 800039a:	2102      	movs	r1, #2
 800039c:	2005      	movs	r0, #5
 800039e:	f7ff ff17 	bl	80001d0 <OS_SVC_Set>
 80003a2:	6078      	str	r0, [r7, #4]
 80003a4:	2203      	movs	r2, #3
 80003a6:	2102      	movs	r1, #2
 80003a8:	2005      	movs	r0, #5
 80003aa:	f7ff ff11 	bl	80001d0 <OS_SVC_Set>
 80003ae:	6078      	str	r0, [r7, #4]
 80003b0:	e7fe      	b.n	80003b0 <main+0x80>
 80003b2:	bf00      	nop
 80003b4:	2000002c 	andcs	r0, r0, ip, lsr #32
 80003b8:	08000c18 	stmdaeq	r0, {r3, r4, sl, fp}
 80003bc:	080002ed 	stmdaeq	r0, {r0, r2, r3, r5, r6, r7, r9}

080003c0 <Reset_Handler>:
 80003c0:	480d      	ldr	r0, [pc, #52]	; (80003f8 <LoopForever+0x2>)
 80003c2:	4685      	mov	sp, r0
 80003c4:	f3af 8000 	nop.w
 80003c8:	480c      	ldr	r0, [pc, #48]	; (80003fc <LoopForever+0x6>)
 80003ca:	490d      	ldr	r1, [pc, #52]	; (8000400 <LoopForever+0xa>)
 80003cc:	4a0d      	ldr	r2, [pc, #52]	; (8000404 <LoopForever+0xe>)
 80003ce:	2300      	movs	r3, #0
 80003d0:	e002      	b.n	80003d8 <LoopCopyDataInit>

080003d2 <CopyDataInit>:
 80003d2:	58d4      	ldr	r4, [r2, r3]
 80003d4:	50c4      	str	r4, [r0, r3]
 80003d6:	3304      	adds	r3, #4

080003d8 <LoopCopyDataInit>:
 80003d8:	18c4      	adds	r4, r0, r3
 80003da:	428c      	cmp	r4, r1
 80003dc:	d3f9      	bcc.n	80003d2 <CopyDataInit>
 80003de:	4a0a      	ldr	r2, [pc, #40]	; (8000408 <LoopForever+0x12>)
 80003e0:	4c0a      	ldr	r4, [pc, #40]	; (800040c <LoopForever+0x16>)
 80003e2:	2300      	movs	r3, #0
 80003e4:	e001      	b.n	80003ea <LoopFillZerobss>

080003e6 <FillZerobss>:
 80003e6:	6013      	str	r3, [r2, #0]
 80003e8:	3204      	adds	r2, #4

080003ea <LoopFillZerobss>:
 80003ea:	42a2      	cmp	r2, r4
 80003ec:	d3fb      	bcc.n	80003e6 <FillZerobss>
 80003ee:	f000 fbe3 	bl	8000bb8 <__libc_init_array>
 80003f2:	f7ff ff9d 	bl	8000330 <main>

080003f6 <LoopForever>:
 80003f6:	e7fe      	b.n	80003f6 <LoopForever>
 80003f8:	20002800 	andcs	r2, r0, r0, lsl #16
 80003fc:	20000000 	andcs	r0, r0, r0
 8000400:	20000000 	andcs	r0, r0, r0
 8000404:	08000c2c 	stmdaeq	r0, {r2, r3, r5, sl, fp}
 8000408:	20000000 	andcs	r0, r0, r0
 800040c:	20000090 	mulcs	r0, r0, r0

08000410 <ADC1_2_IRQHandler>:
 8000410:	e7fe      	b.n	8000410 <ADC1_2_IRQHandler>
	...

08000414 <NVIC_ENABLE>:
 8000414:	b480      	push	{r7}
 8000416:	b083      	sub	sp, #12
 8000418:	af00      	add	r7, sp, #0
 800041a:	4603      	mov	r3, r0
 800041c:	80fb      	strh	r3, [r7, #6]
 800041e:	88fb      	ldrh	r3, [r7, #6]
 8000420:	2b0f      	cmp	r3, #15
 8000422:	d854      	bhi.n	80004ce <NVIC_ENABLE+0xba>
 8000424:	a201      	add	r2, pc, #4	; (adr r2, 800042c <NVIC_ENABLE+0x18>)
 8000426:	f852 f023 	ldr.w	pc, [r2, r3, lsl #2]
 800042a:	bf00      	nop
 800042c:	0800046d 	stmdaeq	r0, {r0, r2, r3, r5, r6, sl}
 8000430:	0800047b 	stmdaeq	r0, {r0, r1, r3, r4, r5, r6, sl}
 8000434:	08000489 	stmdaeq	r0, {r0, r3, r7, sl}
 8000438:	08000497 	stmdaeq	r0, {r0, r1, r2, r4, r7, sl}
 800043c:	080004a5 	stmdaeq	r0, {r0, r2, r5, r7, sl}
 8000440:	080004b3 	stmdaeq	r0, {r0, r1, r4, r5, r7, sl}
 8000444:	080004b3 	stmdaeq	r0, {r0, r1, r4, r5, r7, sl}
 8000448:	080004b3 	stmdaeq	r0, {r0, r1, r4, r5, r7, sl}
 800044c:	080004b3 	stmdaeq	r0, {r0, r1, r4, r5, r7, sl}
 8000450:	080004b3 	stmdaeq	r0, {r0, r1, r4, r5, r7, sl}
 8000454:	080004c1 	stmdaeq	r0, {r0, r6, r7, sl}
 8000458:	080004c1 	stmdaeq	r0, {r0, r6, r7, sl}
 800045c:	080004c1 	stmdaeq	r0, {r0, r6, r7, sl}
 8000460:	080004c1 	stmdaeq	r0, {r0, r6, r7, sl}
 8000464:	080004c1 	stmdaeq	r0, {r0, r6, r7, sl}
 8000468:	080004c1 	stmdaeq	r0, {r0, r6, r7, sl}
 800046c:	4b1a      	ldr	r3, [pc, #104]	; (80004d8 <NVIC_ENABLE+0xc4>)
 800046e:	681b      	ldr	r3, [r3, #0]
 8000470:	4a19      	ldr	r2, [pc, #100]	; (80004d8 <NVIC_ENABLE+0xc4>)
 8000472:	f043 0340 	orr.w	r3, r3, #64	; 0x40
 8000476:	6013      	str	r3, [r2, #0]
 8000478:	e029      	b.n	80004ce <NVIC_ENABLE+0xba>
 800047a:	4b17      	ldr	r3, [pc, #92]	; (80004d8 <NVIC_ENABLE+0xc4>)
 800047c:	681b      	ldr	r3, [r3, #0]
 800047e:	4a16      	ldr	r2, [pc, #88]	; (80004d8 <NVIC_ENABLE+0xc4>)
 8000480:	f043 0380 	orr.w	r3, r3, #128	; 0x80
 8000484:	6013      	str	r3, [r2, #0]
 8000486:	e022      	b.n	80004ce <NVIC_ENABLE+0xba>
 8000488:	4b13      	ldr	r3, [pc, #76]	; (80004d8 <NVIC_ENABLE+0xc4>)
 800048a:	681b      	ldr	r3, [r3, #0]
 800048c:	4a12      	ldr	r2, [pc, #72]	; (80004d8 <NVIC_ENABLE+0xc4>)
 800048e:	f443 7380 	orr.w	r3, r3, #256	; 0x100
 8000492:	6013      	str	r3, [r2, #0]
 8000494:	e01b      	b.n	80004ce <NVIC_ENABLE+0xba>
 8000496:	4b10      	ldr	r3, [pc, #64]	; (80004d8 <NVIC_ENABLE+0xc4>)
 8000498:	681b      	ldr	r3, [r3, #0]
 800049a:	4a0f      	ldr	r2, [pc, #60]	; (80004d8 <NVIC_ENABLE+0xc4>)
 800049c:	f443 7300 	orr.w	r3, r3, #512	; 0x200
 80004a0:	6013      	str	r3, [r2, #0]
 80004a2:	e014      	b.n	80004ce <NVIC_ENABLE+0xba>
 80004a4:	4b0c      	ldr	r3, [pc, #48]	; (80004d8 <NVIC_ENABLE+0xc4>)
 80004a6:	681b      	ldr	r3, [r3, #0]
 80004a8:	4a0b      	ldr	r2, [pc, #44]	; (80004d8 <NVIC_ENABLE+0xc4>)
 80004aa:	f443 6380 	orr.w	r3, r3, #1024	; 0x400
 80004ae:	6013      	str	r3, [r2, #0]
 80004b0:	e00d      	b.n	80004ce <NVIC_ENABLE+0xba>
 80004b2:	4b09      	ldr	r3, [pc, #36]	; (80004d8 <NVIC_ENABLE+0xc4>)
 80004b4:	681b      	ldr	r3, [r3, #0]
 80004b6:	4a08      	ldr	r2, [pc, #32]	; (80004d8 <NVIC_ENABLE+0xc4>)
 80004b8:	f443 0300 	orr.w	r3, r3, #8388608	; 0x800000
 80004bc:	6013      	str	r3, [r2, #0]
 80004be:	e006      	b.n	80004ce <NVIC_ENABLE+0xba>
 80004c0:	4b06      	ldr	r3, [pc, #24]	; (80004dc <NVIC_ENABLE+0xc8>)
 80004c2:	681b      	ldr	r3, [r3, #0]
 80004c4:	4a05      	ldr	r2, [pc, #20]	; (80004dc <NVIC_ENABLE+0xc8>)
 80004c6:	f443 7380 	orr.w	r3, r3, #256	; 0x100
 80004ca:	6013      	str	r3, [r2, #0]
 80004cc:	bf00      	nop
 80004ce:	bf00      	nop
 80004d0:	370c      	adds	r7, #12
 80004d2:	46bd      	mov	sp, r7
 80004d4:	bc80      	pop	{r7}
 80004d6:	4770      	bx	lr
 80004d8:	e000e100 	and	lr, r0, r0, lsl #2
 80004dc:	e000e104 	and	lr, r0, r4, lsl #2

080004e0 <NVIC_DISABLE>:
 80004e0:	b480      	push	{r7}
 80004e2:	b083      	sub	sp, #12
 80004e4:	af00      	add	r7, sp, #0
 80004e6:	4603      	mov	r3, r0
 80004e8:	80fb      	strh	r3, [r7, #6]
 80004ea:	88fb      	ldrh	r3, [r7, #6]
 80004ec:	2b0f      	cmp	r3, #15
 80004ee:	d854      	bhi.n	800059a <NVIC_DISABLE+0xba>
 80004f0:	a201      	add	r2, pc, #4	; (adr r2, 80004f8 <NVIC_DISABLE+0x18>)
 80004f2:	f852 f023 	ldr.w	pc, [r2, r3, lsl #2]
 80004f6:	bf00      	nop
 80004f8:	08000539 	stmdaeq	r0, {r0, r3, r4, r5, r8, sl}
 80004fc:	08000547 	stmdaeq	r0, {r0, r1, r2, r6, r8, sl}
 8000500:	08000555 	stmdaeq	r0, {r0, r2, r4, r6, r8, sl}
 8000504:	08000563 	stmdaeq	r0, {r0, r1, r5, r6, r8, sl}
 8000508:	08000571 	stmdaeq	r0, {r0, r4, r5, r6, r8, sl}
 800050c:	0800057f 	stmdaeq	r0, {r0, r1, r2, r3, r4, r5, r6, r8, sl}
 8000510:	0800057f 	stmdaeq	r0, {r0, r1, r2, r3, r4, r5, r6, r8, sl}
 8000514:	0800057f 	stmdaeq	r0, {r0, r1, r2, r3, r4, r5, r6, r8, sl}
 8000518:	0800057f 	stmdaeq	r0, {r0, r1, r2, r3, r4, r5, r6, r8, sl}
 800051c:	0800057f 	stmdaeq	r0, {r0, r1, r2, r3, r4, r5, r6, r8, sl}
 8000520:	0800058d 	stmdaeq	r0, {r0, r2, r3, r7, r8, sl}
 8000524:	0800058d 	stmdaeq	r0, {r0, r2, r3, r7, r8, sl}
 8000528:	0800058d 	stmdaeq	r0, {r0, r2, r3, r7, r8, sl}
 800052c:	0800058d 	stmdaeq	r0, {r0, r2, r3, r7, r8, sl}
 8000530:	0800058d 	stmdaeq	r0, {r0, r2, r3, r7, r8, sl}
 8000534:	0800058d 	stmdaeq	r0, {r0, r2, r3, r7, r8, sl}
 8000538:	4b1a      	ldr	r3, [pc, #104]	; (80005a4 <NVIC_DISABLE+0xc4>)
 800053a:	681b      	ldr	r3, [r3, #0]
 800053c:	4a19      	ldr	r2, [pc, #100]	; (80005a4 <NVIC_DISABLE+0xc4>)
 800053e:	f023 0340 	bic.w	r3, r3, #64	; 0x40
 8000542:	6013      	str	r3, [r2, #0]
 8000544:	e029      	b.n	800059a <NVIC_DISABLE+0xba>
 8000546:	4b17      	ldr	r3, [pc, #92]	; (80005a4 <NVIC_DISABLE+0xc4>)
 8000548:	681b      	ldr	r3, [r3, #0]
 800054a:	4a16      	ldr	r2, [pc, #88]	; (80005a4 <NVIC_DISABLE+0xc4>)
 800054c:	f023 0380 	bic.w	r3, r3, #128	; 0x80
 8000550:	6013      	str	r3, [r2, #0]
 8000552:	e022      	b.n	800059a <NVIC_DISABLE+0xba>
 8000554:	4b13      	ldr	r3, [pc, #76]	; (80005a4 <NVIC_DISABLE+0xc4>)
 8000556:	681b      	ldr	r3, [r3, #0]
 8000558:	4a12      	ldr	r2, [pc, #72]	; (80005a4 <NVIC_DISABLE+0xc4>)
 800055a:	f423 7380 	bic.w	r3, r3, #256	; 0x100
 800055e:	6013      	str	r3, [r2, #0]
 8000560:	e01b      	b.n	800059a <NVIC_DISABLE+0xba>
 8000562:	4b10      	ldr	r3, [pc, #64]	; (80005a4 <NVIC_DISABLE+0xc4>)
 8000564:	681b      	ldr	r3, [r3, #0]
 8000566:	4a0f      	ldr	r2, [pc, #60]	; (80005a4 <NVIC_DISABLE+0xc4>)
 8000568:	f423 7300 	bic.w	r3, r3, #512	; 0x200
 800056c:	6013      	str	r3, [r2, #0]
 800056e:	e014      	b.n	800059a <NVIC_DISABLE+0xba>
 8000570:	4b0c      	ldr	r3, [pc, #48]	; (80005a4 <NVIC_DISABLE+0xc4>)
 8000572:	681b      	ldr	r3, [r3, #0]
 8000574:	4a0b      	ldr	r2, [pc, #44]	; (80005a4 <NVIC_DISABLE+0xc4>)
 8000576:	f423 6380 	bic.w	r3, r3, #1024	; 0x400
 800057a:	6013      	str	r3, [r2, #0]
 800057c:	e00d      	b.n	800059a <NVIC_DISABLE+0xba>
 800057e:	4b09      	ldr	r3, [pc, #36]	; (80005a4 <NVIC_DISABLE+0xc4>)
 8000580:	681b      	ldr	r3, [r3, #0]
 8000582:	4a08      	ldr	r2, [pc, #32]	; (80005a4 <NVIC_DISABLE+0xc4>)
 8000584:	f423 0300 	bic.w	r3, r3, #8388608	; 0x800000
 8000588:	6013      	str	r3, [r2, #0]
 800058a:	e006      	b.n	800059a <NVIC_DISABLE+0xba>
 800058c:	4b06      	ldr	r3, [pc, #24]	; (80005a8 <NVIC_DISABLE+0xc8>)
 800058e:	681b      	ldr	r3, [r3, #0]
 8000590:	4a05      	ldr	r2, [pc, #20]	; (80005a8 <NVIC_DISABLE+0xc8>)
 8000592:	f423 7380 	bic.w	r3, r3, #256	; 0x100
 8000596:	6013      	str	r3, [r2, #0]
 8000598:	bf00      	nop
 800059a:	bf00      	nop
 800059c:	370c      	adds	r7, #12
 800059e:	46bd      	mov	sp, r7
 80005a0:	bc80      	pop	{r7}
 80005a2:	4770      	bx	lr
 80005a4:	e000e180 	and	lr, r0, r0, lsl #3
 80005a8:	e000e184 	and	lr, r0, r4, lsl #3

080005ac <Updata>:
 80005ac:	b580      	push	{r7, lr}
 80005ae:	b084      	sub	sp, #16
 80005b0:	af00      	add	r7, sp, #0
 80005b2:	6078      	str	r0, [r7, #4]
 80005b4:	687b      	ldr	r3, [r7, #4]
 80005b6:	891b      	ldrh	r3, [r3, #8]
 80005b8:	813b      	strh	r3, [r7, #8]
 80005ba:	2301      	movs	r3, #1
 80005bc:	72bb      	strb	r3, [r7, #10]
 80005be:	687b      	ldr	r3, [r7, #4]
 80005c0:	685b      	ldr	r3, [r3, #4]
 80005c2:	f107 0208 	add.w	r2, r7, #8
 80005c6:	4611      	mov	r1, r2
 80005c8:	4618      	mov	r0, r3
 80005ca:	f000 fa3b 	bl	8000a44 <GPIOx_init>
 80005ce:	687b      	ldr	r3, [r7, #4]
 80005d0:	781b      	ldrb	r3, [r3, #0]
 80005d2:	089b      	lsrs	r3, r3, #2
 80005d4:	73fb      	strb	r3, [r7, #15]
 80005d6:	687b      	ldr	r3, [r7, #4]
 80005d8:	781b      	ldrb	r3, [r3, #0]
 80005da:	f003 0303 	and.w	r3, r3, #3
 80005de:	b2db      	uxtb	r3, r3
 80005e0:	009b      	lsls	r3, r3, #2
 80005e2:	73bb      	strb	r3, [r7, #14]
 80005e4:	4a62      	ldr	r2, [pc, #392]	; (8000770 <Updata+0x1c4>)
 80005e6:	7bfb      	ldrb	r3, [r7, #15]
 80005e8:	3302      	adds	r3, #2
 80005ea:	f852 2023 	ldr.w	r2, [r2, r3, lsl #2]
 80005ee:	7bbb      	ldrb	r3, [r7, #14]
 80005f0:	210f      	movs	r1, #15
 80005f2:	fa01 f303 	lsl.w	r3, r1, r3
 80005f6:	43db      	mvns	r3, r3
 80005f8:	4618      	mov	r0, r3
 80005fa:	495d      	ldr	r1, [pc, #372]	; (8000770 <Updata+0x1c4>)
 80005fc:	7bfb      	ldrb	r3, [r7, #15]
 80005fe:	4002      	ands	r2, r0
 8000600:	3302      	adds	r3, #2
 8000602:	f841 2023 	str.w	r2, [r1, r3, lsl #2]
 8000606:	4a5a      	ldr	r2, [pc, #360]	; (8000770 <Updata+0x1c4>)
 8000608:	7bfb      	ldrb	r3, [r7, #15]
 800060a:	3302      	adds	r3, #2
 800060c:	f852 2023 	ldr.w	r2, [r2, r3, lsl #2]
 8000610:	687b      	ldr	r3, [r7, #4]
 8000612:	685b      	ldr	r3, [r3, #4]
 8000614:	4957      	ldr	r1, [pc, #348]	; (8000774 <Updata+0x1c8>)
 8000616:	428b      	cmp	r3, r1
 8000618:	d016      	beq.n	8000648 <Updata+0x9c>
 800061a:	687b      	ldr	r3, [r7, #4]
 800061c:	685b      	ldr	r3, [r3, #4]
 800061e:	4956      	ldr	r1, [pc, #344]	; (8000778 <Updata+0x1cc>)
 8000620:	428b      	cmp	r3, r1
 8000622:	d00f      	beq.n	8000644 <Updata+0x98>
 8000624:	687b      	ldr	r3, [r7, #4]
 8000626:	685b      	ldr	r3, [r3, #4]
 8000628:	4954      	ldr	r1, [pc, #336]	; (800077c <Updata+0x1d0>)
 800062a:	428b      	cmp	r3, r1
 800062c:	d008      	beq.n	8000640 <Updata+0x94>
 800062e:	687b      	ldr	r3, [r7, #4]
 8000630:	685b      	ldr	r3, [r3, #4]
 8000632:	4953      	ldr	r1, [pc, #332]	; (8000780 <Updata+0x1d4>)
 8000634:	428b      	cmp	r3, r1
 8000636:	d101      	bne.n	800063c <Updata+0x90>
 8000638:	2303      	movs	r3, #3
 800063a:	e006      	b.n	800064a <Updata+0x9e>
 800063c:	2300      	movs	r3, #0
 800063e:	e004      	b.n	800064a <Updata+0x9e>
 8000640:	2302      	movs	r3, #2
 8000642:	e002      	b.n	800064a <Updata+0x9e>
 8000644:	2301      	movs	r3, #1
 8000646:	e000      	b.n	800064a <Updata+0x9e>
 8000648:	2300      	movs	r3, #0
 800064a:	7bb9      	ldrb	r1, [r7, #14]
 800064c:	408b      	lsls	r3, r1
 800064e:	4618      	mov	r0, r3
 8000650:	4947      	ldr	r1, [pc, #284]	; (8000770 <Updata+0x1c4>)
 8000652:	7bfb      	ldrb	r3, [r7, #15]
 8000654:	4302      	orrs	r2, r0
 8000656:	3302      	adds	r3, #2
 8000658:	f841 2023 	str.w	r2, [r1, r3, lsl #2]
 800065c:	4b49      	ldr	r3, [pc, #292]	; (8000784 <Updata+0x1d8>)
 800065e:	689b      	ldr	r3, [r3, #8]
 8000660:	687a      	ldr	r2, [r7, #4]
 8000662:	7812      	ldrb	r2, [r2, #0]
 8000664:	4611      	mov	r1, r2
 8000666:	2201      	movs	r2, #1
 8000668:	408a      	lsls	r2, r1
 800066a:	43d2      	mvns	r2, r2
 800066c:	4611      	mov	r1, r2
 800066e:	4a45      	ldr	r2, [pc, #276]	; (8000784 <Updata+0x1d8>)
 8000670:	400b      	ands	r3, r1
 8000672:	6093      	str	r3, [r2, #8]
 8000674:	4b43      	ldr	r3, [pc, #268]	; (8000784 <Updata+0x1d8>)
 8000676:	68db      	ldr	r3, [r3, #12]
 8000678:	687a      	ldr	r2, [r7, #4]
 800067a:	7812      	ldrb	r2, [r2, #0]
 800067c:	4611      	mov	r1, r2
 800067e:	2201      	movs	r2, #1
 8000680:	408a      	lsls	r2, r1
 8000682:	43d2      	mvns	r2, r2
 8000684:	4611      	mov	r1, r2
 8000686:	4a3f      	ldr	r2, [pc, #252]	; (8000784 <Updata+0x1d8>)
 8000688:	400b      	ands	r3, r1
 800068a:	60d3      	str	r3, [r2, #12]
 800068c:	687b      	ldr	r3, [r7, #4]
 800068e:	7b1b      	ldrb	r3, [r3, #12]
 8000690:	2b01      	cmp	r3, #1
 8000692:	d10b      	bne.n	80006ac <Updata+0x100>
 8000694:	4b3b      	ldr	r3, [pc, #236]	; (8000784 <Updata+0x1d8>)
 8000696:	689b      	ldr	r3, [r3, #8]
 8000698:	687a      	ldr	r2, [r7, #4]
 800069a:	7812      	ldrb	r2, [r2, #0]
 800069c:	4611      	mov	r1, r2
 800069e:	2201      	movs	r2, #1
 80006a0:	408a      	lsls	r2, r1
 80006a2:	4611      	mov	r1, r2
 80006a4:	4a37      	ldr	r2, [pc, #220]	; (8000784 <Updata+0x1d8>)
 80006a6:	430b      	orrs	r3, r1
 80006a8:	6093      	str	r3, [r2, #8]
 80006aa:	e029      	b.n	8000700 <Updata+0x154>
 80006ac:	687b      	ldr	r3, [r7, #4]
 80006ae:	7b1b      	ldrb	r3, [r3, #12]
 80006b0:	2b00      	cmp	r3, #0
 80006b2:	d10b      	bne.n	80006cc <Updata+0x120>
 80006b4:	4b33      	ldr	r3, [pc, #204]	; (8000784 <Updata+0x1d8>)
 80006b6:	68db      	ldr	r3, [r3, #12]
 80006b8:	687a      	ldr	r2, [r7, #4]
 80006ba:	7812      	ldrb	r2, [r2, #0]
 80006bc:	4611      	mov	r1, r2
 80006be:	2201      	movs	r2, #1
 80006c0:	408a      	lsls	r2, r1
 80006c2:	4611      	mov	r1, r2
 80006c4:	4a2f      	ldr	r2, [pc, #188]	; (8000784 <Updata+0x1d8>)
 80006c6:	430b      	orrs	r3, r1
 80006c8:	60d3      	str	r3, [r2, #12]
 80006ca:	e019      	b.n	8000700 <Updata+0x154>
 80006cc:	687b      	ldr	r3, [r7, #4]
 80006ce:	7b1b      	ldrb	r3, [r3, #12]
 80006d0:	2b02      	cmp	r3, #2
 80006d2:	d115      	bne.n	8000700 <Updata+0x154>
 80006d4:	4b2b      	ldr	r3, [pc, #172]	; (8000784 <Updata+0x1d8>)
 80006d6:	689b      	ldr	r3, [r3, #8]
 80006d8:	687a      	ldr	r2, [r7, #4]
 80006da:	7812      	ldrb	r2, [r2, #0]
 80006dc:	4611      	mov	r1, r2
 80006de:	2201      	movs	r2, #1
 80006e0:	408a      	lsls	r2, r1
 80006e2:	4611      	mov	r1, r2
 80006e4:	4a27      	ldr	r2, [pc, #156]	; (8000784 <Updata+0x1d8>)
 80006e6:	430b      	orrs	r3, r1
 80006e8:	6093      	str	r3, [r2, #8]
 80006ea:	4b26      	ldr	r3, [pc, #152]	; (8000784 <Updata+0x1d8>)
 80006ec:	68db      	ldr	r3, [r3, #12]
 80006ee:	687a      	ldr	r2, [r7, #4]
 80006f0:	7812      	ldrb	r2, [r2, #0]
 80006f2:	4611      	mov	r1, r2
 80006f4:	2201      	movs	r2, #1
 80006f6:	408a      	lsls	r2, r1
 80006f8:	4611      	mov	r1, r2
 80006fa:	4a22      	ldr	r2, [pc, #136]	; (8000784 <Updata+0x1d8>)
 80006fc:	430b      	orrs	r3, r1
 80006fe:	60d3      	str	r3, [r2, #12]
 8000700:	687b      	ldr	r3, [r7, #4]
 8000702:	781b      	ldrb	r3, [r3, #0]
 8000704:	4619      	mov	r1, r3
 8000706:	687b      	ldr	r3, [r7, #4]
 8000708:	691b      	ldr	r3, [r3, #16]
 800070a:	4a1f      	ldr	r2, [pc, #124]	; (8000788 <Updata+0x1dc>)
 800070c:	f842 3021 	str.w	r3, [r2, r1, lsl #2]
 8000710:	687b      	ldr	r3, [r7, #4]
 8000712:	7b5b      	ldrb	r3, [r3, #13]
 8000714:	2b01      	cmp	r3, #1
 8000716:	d111      	bne.n	800073c <Updata+0x190>
 8000718:	4b1a      	ldr	r3, [pc, #104]	; (8000784 <Updata+0x1d8>)
 800071a:	681b      	ldr	r3, [r3, #0]
 800071c:	687a      	ldr	r2, [r7, #4]
 800071e:	7812      	ldrb	r2, [r2, #0]
 8000720:	4611      	mov	r1, r2
 8000722:	2201      	movs	r2, #1
 8000724:	408a      	lsls	r2, r1
 8000726:	4611      	mov	r1, r2
 8000728:	4a16      	ldr	r2, [pc, #88]	; (8000784 <Updata+0x1d8>)
 800072a:	430b      	orrs	r3, r1
 800072c:	6013      	str	r3, [r2, #0]
 800072e:	687b      	ldr	r3, [r7, #4]
 8000730:	781b      	ldrb	r3, [r3, #0]
 8000732:	b29b      	uxth	r3, r3
 8000734:	4618      	mov	r0, r3
 8000736:	f7ff fe6d 	bl	8000414 <NVIC_ENABLE>
 800073a:	e015      	b.n	8000768 <Updata+0x1bc>
 800073c:	687b      	ldr	r3, [r7, #4]
 800073e:	7b5b      	ldrb	r3, [r3, #13]
 8000740:	2b00      	cmp	r3, #0
 8000742:	d111      	bne.n	8000768 <Updata+0x1bc>
 8000744:	4b0f      	ldr	r3, [pc, #60]	; (8000784 <Updata+0x1d8>)
 8000746:	681b      	ldr	r3, [r3, #0]
 8000748:	687a      	ldr	r2, [r7, #4]
 800074a:	7812      	ldrb	r2, [r2, #0]
 800074c:	4611      	mov	r1, r2
 800074e:	2201      	movs	r2, #1
 8000750:	408a      	lsls	r2, r1
 8000752:	43d2      	mvns	r2, r2
 8000754:	4611      	mov	r1, r2
 8000756:	4a0b      	ldr	r2, [pc, #44]	; (8000784 <Updata+0x1d8>)
 8000758:	400b      	ands	r3, r1
 800075a:	6013      	str	r3, [r2, #0]
 800075c:	687b      	ldr	r3, [r7, #4]
 800075e:	781b      	ldrb	r3, [r3, #0]
 8000760:	b29b      	uxth	r3, r3
 8000762:	4618      	mov	r0, r3
 8000764:	f7ff febc 	bl	80004e0 <NVIC_DISABLE>
 8000768:	bf00      	nop
 800076a:	3710      	adds	r7, #16
 800076c:	46bd      	mov	sp, r7
 800076e:	bd80      	pop	{r7, pc}
 8000770:	40010000 	andmi	r0, r1, r0
 8000774:	40010800 	andmi	r0, r1, r0, lsl #16
 8000778:	40010c00 	andmi	r0, r1, r0, lsl #24
 800077c:	40011000 	andmi	r1, r1, r0
 8000780:	40011400 	andmi	r1, r1, r0, lsl #8
 8000784:	40010400 	andmi	r0, r1, r0, lsl #8
 8000788:	20000054 	andcs	r0, r0, r4, asr r0

0800078c <MCAL_EXTI_GPIO_INIT>:
 800078c:	b580      	push	{r7, lr}
 800078e:	b082      	sub	sp, #8
 8000790:	af00      	add	r7, sp, #0
 8000792:	6078      	str	r0, [r7, #4]
 8000794:	6878      	ldr	r0, [r7, #4]
 8000796:	f7ff ff09 	bl	80005ac <Updata>
 800079a:	bf00      	nop
 800079c:	3708      	adds	r7, #8
 800079e:	46bd      	mov	sp, r7
 80007a0:	bd80      	pop	{r7, pc}
	...

080007a4 <EXTI0_IRQHandler>:
 80007a4:	b580      	push	{r7, lr}
 80007a6:	af00      	add	r7, sp, #0
 80007a8:	4b03      	ldr	r3, [pc, #12]	; (80007b8 <EXTI0_IRQHandler+0x14>)
 80007aa:	2201      	movs	r2, #1
 80007ac:	615a      	str	r2, [r3, #20]
 80007ae:	4b03      	ldr	r3, [pc, #12]	; (80007bc <EXTI0_IRQHandler+0x18>)
 80007b0:	681b      	ldr	r3, [r3, #0]
 80007b2:	4798      	blx	r3
 80007b4:	bf00      	nop
 80007b6:	bd80      	pop	{r7, pc}
 80007b8:	40010400 	andmi	r0, r1, r0, lsl #8
 80007bc:	20000054 	andcs	r0, r0, r4, asr r0

080007c0 <EXTI1_IRQHandler>:
 80007c0:	b580      	push	{r7, lr}
 80007c2:	af00      	add	r7, sp, #0
 80007c4:	4b03      	ldr	r3, [pc, #12]	; (80007d4 <EXTI1_IRQHandler+0x14>)
 80007c6:	2202      	movs	r2, #2
 80007c8:	615a      	str	r2, [r3, #20]
 80007ca:	4b03      	ldr	r3, [pc, #12]	; (80007d8 <EXTI1_IRQHandler+0x18>)
 80007cc:	685b      	ldr	r3, [r3, #4]
 80007ce:	4798      	blx	r3
 80007d0:	bf00      	nop
 80007d2:	bd80      	pop	{r7, pc}
 80007d4:	40010400 	andmi	r0, r1, r0, lsl #8
 80007d8:	20000054 	andcs	r0, r0, r4, asr r0

080007dc <EXTI2_IRQHandler>:
 80007dc:	b580      	push	{r7, lr}
 80007de:	af00      	add	r7, sp, #0
 80007e0:	4b03      	ldr	r3, [pc, #12]	; (80007f0 <EXTI2_IRQHandler+0x14>)
 80007e2:	2204      	movs	r2, #4
 80007e4:	615a      	str	r2, [r3, #20]
 80007e6:	4b03      	ldr	r3, [pc, #12]	; (80007f4 <EXTI2_IRQHandler+0x18>)
 80007e8:	689b      	ldr	r3, [r3, #8]
 80007ea:	4798      	blx	r3
 80007ec:	bf00      	nop
 80007ee:	bd80      	pop	{r7, pc}
 80007f0:	40010400 	andmi	r0, r1, r0, lsl #8
 80007f4:	20000054 	andcs	r0, r0, r4, asr r0

080007f8 <EXTI3_IRQHandler>:
 80007f8:	b580      	push	{r7, lr}
 80007fa:	af00      	add	r7, sp, #0
 80007fc:	4b03      	ldr	r3, [pc, #12]	; (800080c <EXTI3_IRQHandler+0x14>)
 80007fe:	2208      	movs	r2, #8
 8000800:	615a      	str	r2, [r3, #20]
 8000802:	4b03      	ldr	r3, [pc, #12]	; (8000810 <EXTI3_IRQHandler+0x18>)
 8000804:	68db      	ldr	r3, [r3, #12]
 8000806:	4798      	blx	r3
 8000808:	bf00      	nop
 800080a:	bd80      	pop	{r7, pc}
 800080c:	40010400 	andmi	r0, r1, r0, lsl #8
 8000810:	20000054 	andcs	r0, r0, r4, asr r0

08000814 <EXTI4_IRQHandler>:
 8000814:	b580      	push	{r7, lr}
 8000816:	af00      	add	r7, sp, #0
 8000818:	4b03      	ldr	r3, [pc, #12]	; (8000828 <EXTI4_IRQHandler+0x14>)
 800081a:	2210      	movs	r2, #16
 800081c:	615a      	str	r2, [r3, #20]
 800081e:	4b03      	ldr	r3, [pc, #12]	; (800082c <EXTI4_IRQHandler+0x18>)
 8000820:	691b      	ldr	r3, [r3, #16]
 8000822:	4798      	blx	r3
 8000824:	bf00      	nop
 8000826:	bd80      	pop	{r7, pc}
 8000828:	40010400 	andmi	r0, r1, r0, lsl #8
 800082c:	20000054 	andcs	r0, r0, r4, asr r0

08000830 <EXTI9_5_IRQHandler>:
 8000830:	b580      	push	{r7, lr}
 8000832:	af00      	add	r7, sp, #0
 8000834:	4b1f      	ldr	r3, [pc, #124]	; (80008b4 <EXTI9_5_IRQHandler+0x84>)
 8000836:	695b      	ldr	r3, [r3, #20]
 8000838:	f003 0320 	and.w	r3, r3, #32
 800083c:	2b00      	cmp	r3, #0
 800083e:	d005      	beq.n	800084c <EXTI9_5_IRQHandler+0x1c>
 8000840:	4b1c      	ldr	r3, [pc, #112]	; (80008b4 <EXTI9_5_IRQHandler+0x84>)
 8000842:	2220      	movs	r2, #32
 8000844:	615a      	str	r2, [r3, #20]
 8000846:	4b1c      	ldr	r3, [pc, #112]	; (80008b8 <EXTI9_5_IRQHandler+0x88>)
 8000848:	695b      	ldr	r3, [r3, #20]
 800084a:	4798      	blx	r3
 800084c:	4b19      	ldr	r3, [pc, #100]	; (80008b4 <EXTI9_5_IRQHandler+0x84>)
 800084e:	695b      	ldr	r3, [r3, #20]
 8000850:	f003 0340 	and.w	r3, r3, #64	; 0x40
 8000854:	2b00      	cmp	r3, #0
 8000856:	d005      	beq.n	8000864 <EXTI9_5_IRQHandler+0x34>
 8000858:	4b16      	ldr	r3, [pc, #88]	; (80008b4 <EXTI9_5_IRQHandler+0x84>)
 800085a:	2240      	movs	r2, #64	; 0x40
 800085c:	615a      	str	r2, [r3, #20]
 800085e:	4b16      	ldr	r3, [pc, #88]	; (80008b8 <EXTI9_5_IRQHandler+0x88>)
 8000860:	699b      	ldr	r3, [r3, #24]
 8000862:	4798      	blx	r3
 8000864:	4b13      	ldr	r3, [pc, #76]	; (80008b4 <EXTI9_5_IRQHandler+0x84>)
 8000866:	695b      	ldr	r3, [r3, #20]
 8000868:	f003 0380 	and.w	r3, r3, #128	; 0x80
 800086c:	2b00      	cmp	r3, #0
 800086e:	d005      	beq.n	800087c <EXTI9_5_IRQHandler+0x4c>
 8000870:	4b10      	ldr	r3, [pc, #64]	; (80008b4 <EXTI9_5_IRQHandler+0x84>)
 8000872:	2280      	movs	r2, #128	; 0x80
 8000874:	615a      	str	r2, [r3, #20]
 8000876:	4b10      	ldr	r3, [pc, #64]	; (80008b8 <EXTI9_5_IRQHandler+0x88>)
 8000878:	69db      	ldr	r3, [r3, #28]
 800087a:	4798      	blx	r3
 800087c:	4b0d      	ldr	r3, [pc, #52]	; (80008b4 <EXTI9_5_IRQHandler+0x84>)
 800087e:	695b      	ldr	r3, [r3, #20]
 8000880:	f403 7380 	and.w	r3, r3, #256	; 0x100
 8000884:	2b00      	cmp	r3, #0
 8000886:	d006      	beq.n	8000896 <EXTI9_5_IRQHandler+0x66>
 8000888:	4b0a      	ldr	r3, [pc, #40]	; (80008b4 <EXTI9_5_IRQHandler+0x84>)
 800088a:	f44f 7280 	mov.w	r2, #256	; 0x100
 800088e:	615a      	str	r2, [r3, #20]
 8000890:	4b09      	ldr	r3, [pc, #36]	; (80008b8 <EXTI9_5_IRQHandler+0x88>)
 8000892:	6a1b      	ldr	r3, [r3, #32]
 8000894:	4798      	blx	r3
 8000896:	4b07      	ldr	r3, [pc, #28]	; (80008b4 <EXTI9_5_IRQHandler+0x84>)
 8000898:	695b      	ldr	r3, [r3, #20]
 800089a:	f403 7300 	and.w	r3, r3, #512	; 0x200
 800089e:	2b00      	cmp	r3, #0
 80008a0:	d006      	beq.n	80008b0 <EXTI9_5_IRQHandler+0x80>
 80008a2:	4b04      	ldr	r3, [pc, #16]	; (80008b4 <EXTI9_5_IRQHandler+0x84>)
 80008a4:	f44f 7200 	mov.w	r2, #512	; 0x200
 80008a8:	615a      	str	r2, [r3, #20]
 80008aa:	4b03      	ldr	r3, [pc, #12]	; (80008b8 <EXTI9_5_IRQHandler+0x88>)
 80008ac:	6a5b      	ldr	r3, [r3, #36]	; 0x24
 80008ae:	4798      	blx	r3
 80008b0:	bf00      	nop
 80008b2:	bd80      	pop	{r7, pc}
 80008b4:	40010400 	andmi	r0, r1, r0, lsl #8
 80008b8:	20000054 	andcs	r0, r0, r4, asr r0

080008bc <EXTI15_10_IRQHandler>:
 80008bc:	b580      	push	{r7, lr}
 80008be:	af00      	add	r7, sp, #0
 80008c0:	4b2d      	ldr	r3, [pc, #180]	; (8000978 <EXTI15_10_IRQHandler+0xbc>)
 80008c2:	695b      	ldr	r3, [r3, #20]
 80008c4:	f403 6380 	and.w	r3, r3, #1024	; 0x400
 80008c8:	2b00      	cmp	r3, #0
 80008ca:	d008      	beq.n	80008de <EXTI15_10_IRQHandler+0x22>
 80008cc:	4b2a      	ldr	r3, [pc, #168]	; (8000978 <EXTI15_10_IRQHandler+0xbc>)
 80008ce:	695b      	ldr	r3, [r3, #20]
 80008d0:	4a29      	ldr	r2, [pc, #164]	; (8000978 <EXTI15_10_IRQHandler+0xbc>)
 80008d2:	f443 6380 	orr.w	r3, r3, #1024	; 0x400
 80008d6:	6153      	str	r3, [r2, #20]
 80008d8:	4b28      	ldr	r3, [pc, #160]	; (800097c <EXTI15_10_IRQHandler+0xc0>)
 80008da:	6a9b      	ldr	r3, [r3, #40]	; 0x28
 80008dc:	4798      	blx	r3
 80008de:	4b26      	ldr	r3, [pc, #152]	; (8000978 <EXTI15_10_IRQHandler+0xbc>)
 80008e0:	695b      	ldr	r3, [r3, #20]
 80008e2:	f403 6300 	and.w	r3, r3, #2048	; 0x800
 80008e6:	2b00      	cmp	r3, #0
 80008e8:	d008      	beq.n	80008fc <EXTI15_10_IRQHandler+0x40>
 80008ea:	4b23      	ldr	r3, [pc, #140]	; (8000978 <EXTI15_10_IRQHandler+0xbc>)
 80008ec:	695b      	ldr	r3, [r3, #20]
 80008ee:	4a22      	ldr	r2, [pc, #136]	; (8000978 <EXTI15_10_IRQHandler+0xbc>)
 80008f0:	f443 6300 	orr.w	r3, r3, #2048	; 0x800
 80008f4:	6153      	str	r3, [r2, #20]
 80008f6:	4b21      	ldr	r3, [pc, #132]	; (800097c <EXTI15_10_IRQHandler+0xc0>)
 80008f8:	6adb      	ldr	r3, [r3, #44]	; 0x2c
 80008fa:	4798      	blx	r3
 80008fc:	4b1e      	ldr	r3, [pc, #120]	; (8000978 <EXTI15_10_IRQHandler+0xbc>)
 80008fe:	695b      	ldr	r3, [r3, #20]
 8000900:	f403 5380 	and.w	r3, r3, #4096	; 0x1000
 8000904:	2b00      	cmp	r3, #0
 8000906:	d008      	beq.n	800091a <EXTI15_10_IRQHandler+0x5e>
 8000908:	4b1b      	ldr	r3, [pc, #108]	; (8000978 <EXTI15_10_IRQHandler+0xbc>)
 800090a:	695b      	ldr	r3, [r3, #20]
 800090c:	4a1a      	ldr	r2, [pc, #104]	; (8000978 <EXTI15_10_IRQHandler+0xbc>)
 800090e:	f443 5380 	orr.w	r3, r3, #4096	; 0x1000
 8000912:	6153      	str	r3, [r2, #20]
 8000914:	4b19      	ldr	r3, [pc, #100]	; (800097c <EXTI15_10_IRQHandler+0xc0>)
 8000916:	6b1b      	ldr	r3, [r3, #48]	; 0x30
 8000918:	4798      	blx	r3
 800091a:	4b17      	ldr	r3, [pc, #92]	; (8000978 <EXTI15_10_IRQHandler+0xbc>)
 800091c:	695b      	ldr	r3, [r3, #20]
 800091e:	f403 5300 	and.w	r3, r3, #8192	; 0x2000
 8000922:	2b00      	cmp	r3, #0
 8000924:	d008      	beq.n	8000938 <EXTI15_10_IRQHandler+0x7c>
 8000926:	4b14      	ldr	r3, [pc, #80]	; (8000978 <EXTI15_10_IRQHandler+0xbc>)
 8000928:	695b      	ldr	r3, [r3, #20]
 800092a:	4a13      	ldr	r2, [pc, #76]	; (8000978 <EXTI15_10_IRQHandler+0xbc>)
 800092c:	f443 5300 	orr.w	r3, r3, #8192	; 0x2000
 8000930:	6153      	str	r3, [r2, #20]
 8000932:	4b12      	ldr	r3, [pc, #72]	; (800097c <EXTI15_10_IRQHandler+0xc0>)
 8000934:	6b5b      	ldr	r3, [r3, #52]	; 0x34
 8000936:	4798      	blx	r3
 8000938:	4b0f      	ldr	r3, [pc, #60]	; (8000978 <EXTI15_10_IRQHandler+0xbc>)
 800093a:	695b      	ldr	r3, [r3, #20]
 800093c:	f403 4380 	and.w	r3, r3, #16384	; 0x4000
 8000940:	2b00      	cmp	r3, #0
 8000942:	d008      	beq.n	8000956 <EXTI15_10_IRQHandler+0x9a>
 8000944:	4b0c      	ldr	r3, [pc, #48]	; (8000978 <EXTI15_10_IRQHandler+0xbc>)
 8000946:	695b      	ldr	r3, [r3, #20]
 8000948:	4a0b      	ldr	r2, [pc, #44]	; (8000978 <EXTI15_10_IRQHandler+0xbc>)
 800094a:	f443 4380 	orr.w	r3, r3, #16384	; 0x4000
 800094e:	6153      	str	r3, [r2, #20]
 8000950:	4b0a      	ldr	r3, [pc, #40]	; (800097c <EXTI15_10_IRQHandler+0xc0>)
 8000952:	6b9b      	ldr	r3, [r3, #56]	; 0x38
 8000954:	4798      	blx	r3
 8000956:	4b08      	ldr	r3, [pc, #32]	; (8000978 <EXTI15_10_IRQHandler+0xbc>)
 8000958:	695b      	ldr	r3, [r3, #20]
 800095a:	f403 4380 	and.w	r3, r3, #16384	; 0x4000
 800095e:	2b00      	cmp	r3, #0
 8000960:	d008      	beq.n	8000974 <EXTI15_10_IRQHandler+0xb8>
 8000962:	4b05      	ldr	r3, [pc, #20]	; (8000978 <EXTI15_10_IRQHandler+0xbc>)
 8000964:	695b      	ldr	r3, [r3, #20]
 8000966:	4a04      	ldr	r2, [pc, #16]	; (8000978 <EXTI15_10_IRQHandler+0xbc>)
 8000968:	f443 4300 	orr.w	r3, r3, #32768	; 0x8000
 800096c:	6153      	str	r3, [r2, #20]
 800096e:	4b03      	ldr	r3, [pc, #12]	; (800097c <EXTI15_10_IRQHandler+0xc0>)
 8000970:	6bdb      	ldr	r3, [r3, #60]	; 0x3c
 8000972:	4798      	blx	r3
 8000974:	bf00      	nop
 8000976:	bd80      	pop	{r7, pc}
 8000978:	40010400 	andmi	r0, r1, r0, lsl #8
 800097c:	20000054 	andcs	r0, r0, r4, asr r0

08000980 <get_pin>:
 8000980:	b480      	push	{r7}
 8000982:	b083      	sub	sp, #12
 8000984:	af00      	add	r7, sp, #0
 8000986:	4603      	mov	r3, r0
 8000988:	80fb      	strh	r3, [r7, #6]
 800098a:	88fb      	ldrh	r3, [r7, #6]
 800098c:	2b80      	cmp	r3, #128	; 0x80
 800098e:	d042      	beq.n	8000a16 <get_pin+0x96>
 8000990:	2b80      	cmp	r3, #128	; 0x80
 8000992:	dc11      	bgt.n	80009b8 <get_pin+0x38>
 8000994:	2b08      	cmp	r3, #8
 8000996:	d036      	beq.n	8000a06 <get_pin+0x86>
 8000998:	2b08      	cmp	r3, #8
 800099a:	dc06      	bgt.n	80009aa <get_pin+0x2a>
 800099c:	2b02      	cmp	r3, #2
 800099e:	d02e      	beq.n	80009fe <get_pin+0x7e>
 80009a0:	2b04      	cmp	r3, #4
 80009a2:	d02e      	beq.n	8000a02 <get_pin+0x82>
 80009a4:	2b01      	cmp	r3, #1
 80009a6:	d028      	beq.n	80009fa <get_pin+0x7a>
 80009a8:	e047      	b.n	8000a3a <get_pin+0xba>
 80009aa:	2b20      	cmp	r3, #32
 80009ac:	d02f      	beq.n	8000a0e <get_pin+0x8e>
 80009ae:	2b40      	cmp	r3, #64	; 0x40
 80009b0:	d02f      	beq.n	8000a12 <get_pin+0x92>
 80009b2:	2b10      	cmp	r3, #16
 80009b4:	d029      	beq.n	8000a0a <get_pin+0x8a>
 80009b6:	e040      	b.n	8000a3a <get_pin+0xba>
 80009b8:	f5b3 6f00 	cmp.w	r3, #2048	; 0x800
 80009bc:	d033      	beq.n	8000a26 <get_pin+0xa6>
 80009be:	f5b3 6f00 	cmp.w	r3, #2048	; 0x800
 80009c2:	dc09      	bgt.n	80009d8 <get_pin+0x58>
 80009c4:	f5b3 7f00 	cmp.w	r3, #512	; 0x200
 80009c8:	d029      	beq.n	8000a1e <get_pin+0x9e>
 80009ca:	f5b3 6f80 	cmp.w	r3, #1024	; 0x400
 80009ce:	d028      	beq.n	8000a22 <get_pin+0xa2>
 80009d0:	f5b3 7f80 	cmp.w	r3, #256	; 0x100
 80009d4:	d021      	beq.n	8000a1a <get_pin+0x9a>
 80009d6:	e030      	b.n	8000a3a <get_pin+0xba>
 80009d8:	f5b3 5f00 	cmp.w	r3, #8192	; 0x2000
 80009dc:	d027      	beq.n	8000a2e <get_pin+0xae>
 80009de:	f5b3 5f00 	cmp.w	r3, #8192	; 0x2000
 80009e2:	dc03      	bgt.n	80009ec <get_pin+0x6c>
 80009e4:	f5b3 5f80 	cmp.w	r3, #4096	; 0x1000
 80009e8:	d01f      	beq.n	8000a2a <get_pin+0xaa>
 80009ea:	e026      	b.n	8000a3a <get_pin+0xba>
 80009ec:	f5b3 4f80 	cmp.w	r3, #16384	; 0x4000
 80009f0:	d01f      	beq.n	8000a32 <get_pin+0xb2>
 80009f2:	f5b3 4f00 	cmp.w	r3, #32768	; 0x8000
 80009f6:	d01e      	beq.n	8000a36 <get_pin+0xb6>
 80009f8:	e01f      	b.n	8000a3a <get_pin+0xba>
 80009fa:	2300      	movs	r3, #0
 80009fc:	e01d      	b.n	8000a3a <get_pin+0xba>
 80009fe:	2304      	movs	r3, #4
 8000a00:	e01b      	b.n	8000a3a <get_pin+0xba>
 8000a02:	2308      	movs	r3, #8
 8000a04:	e019      	b.n	8000a3a <get_pin+0xba>
 8000a06:	230c      	movs	r3, #12
 8000a08:	e017      	b.n	8000a3a <get_pin+0xba>
 8000a0a:	2310      	movs	r3, #16
 8000a0c:	e015      	b.n	8000a3a <get_pin+0xba>
 8000a0e:	2314      	movs	r3, #20
 8000a10:	e013      	b.n	8000a3a <get_pin+0xba>
 8000a12:	2318      	movs	r3, #24
 8000a14:	e011      	b.n	8000a3a <get_pin+0xba>
 8000a16:	231c      	movs	r3, #28
 8000a18:	e00f      	b.n	8000a3a <get_pin+0xba>
 8000a1a:	2300      	movs	r3, #0
 8000a1c:	e00d      	b.n	8000a3a <get_pin+0xba>
 8000a1e:	2304      	movs	r3, #4
 8000a20:	e00b      	b.n	8000a3a <get_pin+0xba>
 8000a22:	2308      	movs	r3, #8
 8000a24:	e009      	b.n	8000a3a <get_pin+0xba>
 8000a26:	230c      	movs	r3, #12
 8000a28:	e007      	b.n	8000a3a <get_pin+0xba>
 8000a2a:	2310      	movs	r3, #16
 8000a2c:	e005      	b.n	8000a3a <get_pin+0xba>
 8000a2e:	2314      	movs	r3, #20
 8000a30:	e003      	b.n	8000a3a <get_pin+0xba>
 8000a32:	2318      	movs	r3, #24
 8000a34:	e001      	b.n	8000a3a <get_pin+0xba>
 8000a36:	231c      	movs	r3, #28
 8000a38:	e7ff      	b.n	8000a3a <get_pin+0xba>
 8000a3a:	4618      	mov	r0, r3
 8000a3c:	370c      	adds	r7, #12
 8000a3e:	46bd      	mov	sp, r7
 8000a40:	bc80      	pop	{r7}
 8000a42:	4770      	bx	lr

08000a44 <GPIOx_init>:
 8000a44:	b590      	push	{r4, r7, lr}
 8000a46:	b085      	sub	sp, #20
 8000a48:	af00      	add	r7, sp, #0
 8000a4a:	6078      	str	r0, [r7, #4]
 8000a4c:	6039      	str	r1, [r7, #0]
 8000a4e:	2300      	movs	r3, #0
 8000a50:	60bb      	str	r3, [r7, #8]
 8000a52:	683b      	ldr	r3, [r7, #0]
 8000a54:	881b      	ldrh	r3, [r3, #0]
 8000a56:	f5b3 7f80 	cmp.w	r3, #256	; 0x100
 8000a5a:	d902      	bls.n	8000a62 <GPIOx_init+0x1e>
 8000a5c:	687b      	ldr	r3, [r7, #4]
 8000a5e:	3304      	adds	r3, #4
 8000a60:	e000      	b.n	8000a64 <GPIOx_init+0x20>
 8000a62:	687b      	ldr	r3, [r7, #4]
 8000a64:	60bb      	str	r3, [r7, #8]
 8000a66:	2300      	movs	r3, #0
 8000a68:	73fb      	strb	r3, [r7, #15]
 8000a6a:	683b      	ldr	r3, [r7, #0]
 8000a6c:	881b      	ldrh	r3, [r3, #0]
 8000a6e:	4618      	mov	r0, r3
 8000a70:	f7ff ff86 	bl	8000980 <get_pin>
 8000a74:	4603      	mov	r3, r0
 8000a76:	461a      	mov	r2, r3
 8000a78:	230f      	movs	r3, #15
 8000a7a:	4093      	lsls	r3, r2
 8000a7c:	43da      	mvns	r2, r3
 8000a7e:	68bb      	ldr	r3, [r7, #8]
 8000a80:	681b      	ldr	r3, [r3, #0]
 8000a82:	401a      	ands	r2, r3
 8000a84:	68bb      	ldr	r3, [r7, #8]
 8000a86:	601a      	str	r2, [r3, #0]
 8000a88:	683b      	ldr	r3, [r7, #0]
 8000a8a:	789b      	ldrb	r3, [r3, #2]
 8000a8c:	2b04      	cmp	r3, #4
 8000a8e:	d00b      	beq.n	8000aa8 <GPIOx_init+0x64>
 8000a90:	683b      	ldr	r3, [r7, #0]
 8000a92:	789b      	ldrb	r3, [r3, #2]
 8000a94:	2b05      	cmp	r3, #5
 8000a96:	d007      	beq.n	8000aa8 <GPIOx_init+0x64>
 8000a98:	683b      	ldr	r3, [r7, #0]
 8000a9a:	789b      	ldrb	r3, [r3, #2]
 8000a9c:	2b06      	cmp	r3, #6
 8000a9e:	d003      	beq.n	8000aa8 <GPIOx_init+0x64>
 8000aa0:	683b      	ldr	r3, [r7, #0]
 8000aa2:	789b      	ldrb	r3, [r3, #2]
 8000aa4:	2b07      	cmp	r3, #7
 8000aa6:	d10e      	bne.n	8000ac6 <GPIOx_init+0x82>
 8000aa8:	683b      	ldr	r3, [r7, #0]
 8000aaa:	789b      	ldrb	r3, [r3, #2]
 8000aac:	3b04      	subs	r3, #4
 8000aae:	009b      	lsls	r3, r3, #2
 8000ab0:	b25a      	sxtb	r2, r3
 8000ab2:	683b      	ldr	r3, [r7, #0]
 8000ab4:	78db      	ldrb	r3, [r3, #3]
 8000ab6:	b25b      	sxtb	r3, r3
 8000ab8:	f003 030f 	and.w	r3, r3, #15
 8000abc:	b25b      	sxtb	r3, r3
 8000abe:	4313      	orrs	r3, r2
 8000ac0:	b25b      	sxtb	r3, r3
 8000ac2:	73fb      	strb	r3, [r7, #15]
 8000ac4:	e02a      	b.n	8000b1c <GPIOx_init+0xd8>
 8000ac6:	683b      	ldr	r3, [r7, #0]
 8000ac8:	789b      	ldrb	r3, [r3, #2]
 8000aca:	2b00      	cmp	r3, #0
 8000acc:	d003      	beq.n	8000ad6 <GPIOx_init+0x92>
 8000ace:	683b      	ldr	r3, [r7, #0]
 8000ad0:	789b      	ldrb	r3, [r3, #2]
 8000ad2:	2b01      	cmp	r3, #1
 8000ad4:	d107      	bne.n	8000ae6 <GPIOx_init+0xa2>
 8000ad6:	683b      	ldr	r3, [r7, #0]
 8000ad8:	789b      	ldrb	r3, [r3, #2]
 8000ada:	009b      	lsls	r3, r3, #2
 8000adc:	b2db      	uxtb	r3, r3
 8000ade:	f003 030f 	and.w	r3, r3, #15
 8000ae2:	73fb      	strb	r3, [r7, #15]
 8000ae4:	e01a      	b.n	8000b1c <GPIOx_init+0xd8>
 8000ae6:	683b      	ldr	r3, [r7, #0]
 8000ae8:	789b      	ldrb	r3, [r3, #2]
 8000aea:	2b08      	cmp	r3, #8
 8000aec:	d102      	bne.n	8000af4 <GPIOx_init+0xb0>
 8000aee:	2304      	movs	r3, #4
 8000af0:	73fb      	strb	r3, [r7, #15]
 8000af2:	e013      	b.n	8000b1c <GPIOx_init+0xd8>
 8000af4:	2308      	movs	r3, #8
 8000af6:	73fb      	strb	r3, [r7, #15]
 8000af8:	683b      	ldr	r3, [r7, #0]
 8000afa:	789b      	ldrb	r3, [r3, #2]
 8000afc:	2b02      	cmp	r3, #2
 8000afe:	d105      	bne.n	8000b0c <GPIOx_init+0xc8>
 8000b00:	683b      	ldr	r3, [r7, #0]
 8000b02:	881b      	ldrh	r3, [r3, #0]
 8000b04:	461a      	mov	r2, r3
 8000b06:	687b      	ldr	r3, [r7, #4]
 8000b08:	60da      	str	r2, [r3, #12]
 8000b0a:	e007      	b.n	8000b1c <GPIOx_init+0xd8>
 8000b0c:	687b      	ldr	r3, [r7, #4]
 8000b0e:	68db      	ldr	r3, [r3, #12]
 8000b10:	683a      	ldr	r2, [r7, #0]
 8000b12:	8812      	ldrh	r2, [r2, #0]
 8000b14:	43d2      	mvns	r2, r2
 8000b16:	401a      	ands	r2, r3
 8000b18:	687b      	ldr	r3, [r7, #4]
 8000b1a:	60da      	str	r2, [r3, #12]
 8000b1c:	7bfc      	ldrb	r4, [r7, #15]
 8000b1e:	683b      	ldr	r3, [r7, #0]
 8000b20:	881b      	ldrh	r3, [r3, #0]
 8000b22:	4618      	mov	r0, r3
 8000b24:	f7ff ff2c 	bl	8000980 <get_pin>
 8000b28:	4603      	mov	r3, r0
 8000b2a:	fa04 f203 	lsl.w	r2, r4, r3
 8000b2e:	68bb      	ldr	r3, [r7, #8]
 8000b30:	681b      	ldr	r3, [r3, #0]
 8000b32:	431a      	orrs	r2, r3
 8000b34:	68bb      	ldr	r3, [r7, #8]
 8000b36:	601a      	str	r2, [r3, #0]
 8000b38:	bf00      	nop
 8000b3a:	3714      	adds	r7, #20
 8000b3c:	46bd      	mov	sp, r7
 8000b3e:	bd90      	pop	{r4, r7, pc}

08000b40 <SPI1_IRQHandler>:
 8000b40:	b580      	push	{r7, lr}
 8000b42:	af00      	add	r7, sp, #0
 8000b44:	4b02      	ldr	r3, [pc, #8]	; (8000b50 <SPI1_IRQHandler+0x10>)
 8000b46:	681b      	ldr	r3, [r3, #0]
 8000b48:	68db      	ldr	r3, [r3, #12]
 8000b4a:	4798      	blx	r3
 8000b4c:	bf00      	nop
 8000b4e:	bd80      	pop	{r7, pc}
 8000b50:	20000020 	andcs	r0, r0, r0, lsr #32

08000b54 <SPI2_IRQHandler>:
 8000b54:	b580      	push	{r7, lr}
 8000b56:	af00      	add	r7, sp, #0
 8000b58:	4b02      	ldr	r3, [pc, #8]	; (8000b64 <SPI2_IRQHandler+0x10>)
 8000b5a:	681b      	ldr	r3, [r3, #0]
 8000b5c:	68db      	ldr	r3, [r3, #12]
 8000b5e:	4798      	blx	r3
 8000b60:	bf00      	nop
 8000b62:	bd80      	pop	{r7, pc}
 8000b64:	20000020 	andcs	r0, r0, r0, lsr #32

08000b68 <SPI3_IRQHandler>:
 8000b68:	b580      	push	{r7, lr}
 8000b6a:	af00      	add	r7, sp, #0
 8000b6c:	4b02      	ldr	r3, [pc, #8]	; (8000b78 <SPI3_IRQHandler+0x10>)
 8000b6e:	681b      	ldr	r3, [r3, #0]
 8000b70:	68db      	ldr	r3, [r3, #12]
 8000b72:	4798      	blx	r3
 8000b74:	bf00      	nop
 8000b76:	bd80      	pop	{r7, pc}
 8000b78:	20000020 	andcs	r0, r0, r0, lsr #32

08000b7c <USART1_IRQHandler>:
 8000b7c:	b580      	push	{r7, lr}
 8000b7e:	af00      	add	r7, sp, #0
 8000b80:	4b02      	ldr	r3, [pc, #8]	; (8000b8c <USART1_IRQHandler+0x10>)
 8000b82:	681b      	ldr	r3, [r3, #0]
 8000b84:	691b      	ldr	r3, [r3, #16]
 8000b86:	4798      	blx	r3
 8000b88:	bf00      	nop
 8000b8a:	bd80      	pop	{r7, pc}
 8000b8c:	20000024 	andcs	r0, r0, r4, lsr #32

08000b90 <USART2_IRQHandler>:
 8000b90:	b580      	push	{r7, lr}
 8000b92:	af00      	add	r7, sp, #0
 8000b94:	4b02      	ldr	r3, [pc, #8]	; (8000ba0 <USART2_IRQHandler+0x10>)
 8000b96:	681b      	ldr	r3, [r3, #0]
 8000b98:	691b      	ldr	r3, [r3, #16]
 8000b9a:	4798      	blx	r3
 8000b9c:	bf00      	nop
 8000b9e:	bd80      	pop	{r7, pc}
 8000ba0:	20000024 	andcs	r0, r0, r4, lsr #32

08000ba4 <USART3_IRQHandler>:
 8000ba4:	b580      	push	{r7, lr}
 8000ba6:	af00      	add	r7, sp, #0
 8000ba8:	4b02      	ldr	r3, [pc, #8]	; (8000bb4 <USART3_IRQHandler+0x10>)
 8000baa:	681b      	ldr	r3, [r3, #0]
 8000bac:	691b      	ldr	r3, [r3, #16]
 8000bae:	4798      	blx	r3
 8000bb0:	bf00      	nop
 8000bb2:	bd80      	pop	{r7, pc}
 8000bb4:	20000024 	andcs	r0, r0, r4, lsr #32

08000bb8 <__libc_init_array>:
 8000bb8:	b570      	push	{r4, r5, r6, lr}
 8000bba:	2500      	movs	r5, #0
 8000bbc:	4e0c      	ldr	r6, [pc, #48]	; (8000bf0 <__libc_init_array+0x38>)
 8000bbe:	4c0d      	ldr	r4, [pc, #52]	; (8000bf4 <__libc_init_array+0x3c>)
 8000bc0:	1ba4      	subs	r4, r4, r6
 8000bc2:	10a4      	asrs	r4, r4, #2
 8000bc4:	42a5      	cmp	r5, r4
 8000bc6:	d109      	bne.n	8000bdc <__libc_init_array+0x24>
 8000bc8:	f000 f81a 	bl	8000c00 <_init>
 8000bcc:	2500      	movs	r5, #0
 8000bce:	4e0a      	ldr	r6, [pc, #40]	; (8000bf8 <__libc_init_array+0x40>)
 8000bd0:	4c0a      	ldr	r4, [pc, #40]	; (8000bfc <__libc_init_array+0x44>)
 8000bd2:	1ba4      	subs	r4, r4, r6
 8000bd4:	10a4      	asrs	r4, r4, #2
 8000bd6:	42a5      	cmp	r5, r4
 8000bd8:	d105      	bne.n	8000be6 <__libc_init_array+0x2e>
 8000bda:	bd70      	pop	{r4, r5, r6, pc}
 8000bdc:	f856 3025 	ldr.w	r3, [r6, r5, lsl #2]
 8000be0:	4798      	blx	r3
 8000be2:	3501      	adds	r5, #1
 8000be4:	e7ee      	b.n	8000bc4 <__libc_init_array+0xc>
 8000be6:	f856 3025 	ldr.w	r3, [r6, r5, lsl #2]
 8000bea:	4798      	blx	r3
 8000bec:	3501      	adds	r5, #1
 8000bee:	e7f2      	b.n	8000bd6 <__libc_init_array+0x1e>
 8000bf0:	08000c24 	stmdaeq	r0, {r2, r5, sl, fp}
 8000bf4:	08000c24 	stmdaeq	r0, {r2, r5, sl, fp}
 8000bf8:	08000c24 	stmdaeq	r0, {r2, r5, sl, fp}
 8000bfc:	08000c28 	stmdaeq	r0, {r3, r5, sl, fp}

08000c00 <_init>:
 8000c00:	b5f8      	push	{r3, r4, r5, r6, r7, lr}
 8000c02:	bf00      	nop
 8000c04:	bcf8      	pop	{r3, r4, r5, r6, r7}
 8000c06:	bc08      	pop	{r3}
 8000c08:	469e      	mov	lr, r3
 8000c0a:	4770      	bx	lr

08000c0c <_fini>:
 8000c0c:	b5f8      	push	{r3, r4, r5, r6, r7, lr}
 8000c0e:	bf00      	nop
 8000c10:	bcf8      	pop	{r3, r4, r5, r6, r7}
 8000c12:	bc08      	pop	{r3}
 8000c14:	469e      	mov	lr, r3
 8000c16:	4770      	bx	lr
